

Microchip Technology PIC18 LITE Macro Assembler V1.45 build -152302408 
                                                                                               Fri Aug 03 17:35:20 2018

Microchip Technology Omniscient Code Generator v1.45 (Free mode) build 201711160504
     1                           	processor	18F4553
     2                           	fnconf	rparam,??,?,0
     3                           	opt	pw 120
     4                           	opt	lm
     5                           	psect	idataBIGRAM,global,class=CODE,delta=1,noexec
     6                           	psect	idataBANK0,global,class=CODE,delta=1,noexec
     7                           	psect	smallconst,global,reloc=2,class=SMALLCONST,delta=1,noexec
     8                           	psect	nvCOMRAM,global,class=COMRAM,space=1,delta=1,noexec
     9                           	psect	cinit,global,reloc=2,class=CODE,delta=1
    10                           	psect	bssCOMRAM,global,class=COMRAM,space=1,delta=1,noexec
    11                           	psect	bssBANK0,global,class=BANK0,space=1,delta=1,lowdata,noexec
    12                           	psect	dataBANK0,global,class=BANK0,space=1,delta=1,lowdata,noexec
    13                           	psect	dataBIGRAM,global,class=BIGRAM,space=1,delta=1,lowdata,noexec
    14                           	psect	cstackBANK0,global,class=BANK0,space=1,delta=1,noexec
    15                           	psect	cstackCOMRAM,global,class=COMRAM,space=1,delta=1,noexec
    16                           	psect	text0,global,reloc=2,class=CODE,delta=1
    17                           	psect	text1,global,reloc=2,class=CODE,delta=1
    18                           	psect	intcode,global,reloc=2,class=CODE,delta=1
    19                           	psect	intcode_body,global,reloc=2,class=CODE,delta=1
    20                           	psect	text3,global,reloc=2,class=CODE,delta=1
    21                           	psect	text4,global,reloc=2,class=CODE,delta=1
    22                           	psect	text5,global,reloc=2,class=CODE,delta=1,group=1
    23                           	psect	intsave_regs,global,class=BIGRAM,space=1,delta=1,noexec
    24                           	psect	rparam,global,class=COMRAM,space=1,delta=1,noexec
    25                           	psect	temp,global,ovrld,common,class=COMRAM,space=1,delta=1
    26  0000                     
    27                           ; Version 1.45
    28                           ; Generated 16/11/2017 GMT
    29                           ; 
    30                           ; Copyright © 2017, Microchip Technology Inc. and its subsidiaries ("Microchip")
    31                           ; All rights reserved.
    32                           ; 
    33                           ; This software is developed by Microchip Technology Inc. and its subsidiaries ("Microch
      +                          ip").
    34                           ; 
    35                           ; Redistribution and use in source and binary forms, with or without modification, are
    36                           ; permitted provided that the following conditions are met:
    37                           ; 
    38                           ;     1. Redistributions of source code must retain the above copyright notice, this lis
      +                          t of
    39                           ;        conditions and the following disclaimer.
    40                           ; 
    41                           ;     2. Redistributions in binary form must reproduce the above copyright notice, this 
      +                          list
    42                           ;        of conditions and the following disclaimer in the documentation and/or other
    43                           ;        materials provided with the distribution.
    44                           ; 
    45                           ;     3. Microchip's name may not be used to endorse or promote products derived from th
      +                          is
    46                           ;        software without specific prior written permission.
    47                           ; 
    48                           ; THIS SOFTWARE IS PROVIDED BY MICROCHIP "AS IS" AND ANY EXPRESS OR IMPLIED WARRANTIES,
    49                           ; INCLUDING, BUT NOT LIMITED TO, THE IMPLIED WARRANTIES OF MERCHANTABILITY AND FITNESS F
      +                          OR
    50                           ; PURPOSE ARE DISCLAIMED.  IN NO EVENT SHALL MICROCHIP BE LIABLE FOR ANY DIRECT, INDIREC
      +                          T,
    51                           ; INCIDENTAL, SPECIAL, EXEMPLARY, OR CONSEQUENTIAL DAMAGES (INCLUDING BUT NOT LIMITED TO
    52                           ; PROCUREMENT OF SUBSTITUTE GOODS OR SERVICES; LOSS OF USE, DATA OR PROFITS; OR BUSINESS
    53                           ; INTERRUPTION) HOWSOEVER CAUSED AND ON ANY THEORY OF LIABILITY, WHETHER IN CONTRACT, ST
      +                          RICT
    54                           ; LIABILITY, OR TORT (INCLUDING NEGLIGENCE OR OTHERWISE) ARISING IN ANY WAY OUT OF THE U
      +                          SE OF
    55                           ; THIS SOFTWARE, EVEN IF ADVISED OF THE POSSIBILITY OF SUCH DAMAGE.
    56                           ; 
    57                           ; 
    58                           ; Code-generator required, PIC18F4553 Definitions
    59                           ; 
    60                           ; SFR Addresses
    61  0000                     
    62                           	psect	idataBIGRAM
    63  000C02                     __pidataBIGRAM:
    64                           	opt stack 0
    65                           
    66                           ;initializer for _fontList
    67  000C02  0000               	dw	0
    68  000C04  0000               	dw	0
    69  000C06  0000               	dw	0
    70  000C08  0000               	dw	0
    71  000C0A  0000               	dw	0
    72  000C0C  0000               	dw	0
    73  000C0E  0000               	dw	0
    74  000C10  0000               	dw	0
    75  000C12  0000               	dw	0
    76  000C14  0000               	dw	0
    77  000C16  0000               	dw	0
    78  000C18  0000               	dw	0
    79  000C1A  0000               	dw	0
    80  000C1C  0000               	dw	0
    81  000C1E  0000               	dw	0
    82  000C20  0000               	dw	0
    83  000C22  0000               	dw	0
    84  000C24  0000               	dw	0
    85  000C26  0000               	dw	0
    86  000C28  0000               	dw	0
    87  000C2A  0000               	dw	0
    88  000C2C  0000               	dw	0
    89  000C2E  0000               	dw	0
    90  000C30  0000               	dw	0
    91  000C32  0000               	dw	0
    92  000C34  0000               	dw	0
    93  000C36  0000               	dw	0
    94  000C38  0000               	dw	0
    95  000C3A  0000               	dw	0
    96  000C3C  0000               	dw	0
    97  000C3E  0000               	dw	0
    98  000C40  0000               	dw	0
    99  000C42  0000               	dw	0
   100  000C44  1812               	dw	6162
   101  000C46  0880               	dw	2176
   102  000C48  0000               	dw	0
   103  000C4A  CC33               	dw	52275
   104  000C4C  7BA9               	dw	31657
   105  000C4E  B43B               	dw	46139
   106  000C50  0080               	dw	128
   107  000C52  9000               	dw	36864
   108  000C54  2400               	dw	9216
   109  000C56  FF00               	dw	65280
   110  000C58  4B00               	dw	19200
   111  000C5A  0000               	dw	0
   112  000C5C  0300               	dw	768
   113  000C5E  0000               	dw	0
   114  000C60  3000               	dw	12288
   115  000C62  00FF               	dw	255
   116  000C64  4800               	dw	18432
   117  000C66  0377               	dw	887
   118  000C68  033F               	dw	831
   119  000C6A  038C               	dw	908
   120  000C6C  03BB               	dw	955
   121  000C6E  03FB               	dw	1019
   122  000C70  008F               	dw	143
   123  000C72  03FF               	dw	1023
   124  000C74  03BF               	dw	959
   125  000C76  0000               	dw	0
   126  000C78  0000               	dw	0
   127  000C7A  9000               	dw	36864
   128  000C7C  0330               	dw	816
   129  000C7E  2400               	dw	9216
   130  000C80  1013               	dw	4115
   131  000C82  0000               	dw	0
   132  000C84  03CF               	dw	975
   133  000C86  91F3               	dw	37363
   134  000C88  00F3               	dw	243
   135  000C8A  037C               	dw	892
   136  000C8C  03F3               	dw	1011
   137  000C8E  03C3               	dw	963
   138  000C90  02FB               	dw	763
   139  000C92  03CC               	dw	972
   140  000C94  4833               	dw	18483
   141  000C96  4813               	dw	18451
   142  000C98  91C0               	dw	37312
   143  000C9A  00F0               	dw	240
   144  000C9C  14CC               	dw	5324
   145  000C9E  84CC               	dw	33996
   146  000CA0  00FF               	dw	255
   147  000CA2  03C7               	dw	967
   148  000CA4  80FF               	dw	33023
   149  000CA6  83C7               	dw	33735
   150  000CA8  03BB               	dw	955
   151  000CAA  4803               	dw	18435
   152  000CAC  00FC               	dw	252
   153  000CAE  30C0               	dw	12480
   154  000CB0  A0CC               	dw	41164
   155  000CB2  B400               	dw	46080
   156  000CB4  5400               	dw	21504
   157  000CB6  3033               	dw	12339
   158  000CB8  00D1               	dw	209
   159  000CBA  8400               	dw	33792
   160  000CBC  0003               	dw	3
   161  000CBE  0030               	dw	48
   162  000CC0  AB00               	dw	43776
   163  000CC2  34C0               	dw	13504
   164  000CC4  0B7B               	dw	2939
   165  000CC6  5703               	dw	22275
   166  000CC8  0000               	dw	0
   167  000CCA  0000               	dw	0
   168  000CCC  0000               	dw	0
   169  000CCE  FFFF               	dw	65535
   170  000CD0  0001               	dw	1
   171  000CD2  0002               	dw	2
   172  000CD4  0004               	dw	4
   173  000CD6  0008               	dw	8
   174  000CD8  0020               	dw	32
   175  000CDA  0010               	dw	16
   176  000CDC  0040               	dw	64
   177  000CDE  0080               	dw	128
   178  000CE0  0800               	dw	2048
   179  000CE2  1000               	dw	4096
   180  000CE4  0200               	dw	512
   181  000CE6  8000               	dw	32768
   182  000CE8  4000               	dw	16384
   183  000CEA  2000               	dw	8192
   184  000CEC  0100               	dw	256
   185  000CEE  0400               	dw	1024
   186  000CF0  0800               	dw	2048
   187  000CF2  1800               	dw	6144
   188  000CF4  1A00               	dw	6656
   189  000CF6  9A00               	dw	39424
   190  000CF8  DA00               	dw	55808
   191  000CFA  FA00               	dw	64000
   192  000CFC  FB00               	dw	64256
   193  000CFE  FF00               	dw	65280
   194  000D00  0000               	dw	0
   195  000D02  0000               	dw	0
   196                           
   197                           	psect	idataBANK0
   198  000F3A                     __pidataBANK0:
   199                           	opt stack 0
   200                           
   201                           ;initializer for _segMap
   202  000F3A  00FF               	dw	255
   203  000F3C  0003               	dw	3
   204  000F3E  00FF               	dw	255
   205  000F40  0003               	dw	3
   206  000F42  00FF               	dw	255
   207  000F44  0003               	dw	3
   208  000F46  00FF               	dw	255
   209  000F48  0003               	dw	3
   210  000F4A  00FF               	dw	255
   211  000F4C  0003               	dw	3
   212  000F4E  00FF               	dw	255
   213  000F50  0003               	dw	3
   214  000F52  00FF               	dw	255
   215  000F54  0003               	dw	3
   216  000F56  00FF               	dw	255
   217  000F58  0003               	dw	3
   218  000F5A  00FF               	dw	255
   219  000F5C  0003               	dw	3
   220                           
   221                           	psect	smallconst
   222  000800                     __psmallconst:
   223                           	opt stack 0
   224  000800  00                 	db	0
   225  000801                     _MESSAGE_LENGTH:
   226                           	opt stack 0
   227  000801  004A               	dw	74
   228  000803                     __end_of_MESSAGE_LENGTH:
   229                           	opt stack 0
   230  000803  4D                 	db	77
   231  000804  41                 	db	65
   232  000805  4B                 	db	75
   233  000806  45                 	db	69
   234  000807  52                 	db	82
   235  000808  20                 	db	32
   236  000809  46                 	db	70
   237  00080A  41                 	db	65
   238  00080B  49                 	db	73
   239  00080C  52                 	db	82
   240  00080D  45                 	db	69
   241  00080E  20                 	db	32
   242  00080F  54                 	db	84
   243  000810  4F                 	db	79
   244  000811  4B                 	db	75
   245  000812  59                 	db	89
   246  000813  4F                 	db	79
   247  000814  20                 	db	32
   248  000815  32                 	db	50
   249  000816  30                 	db	48
   250  000817  31                 	db	49
   251  000818  38                 	db	56
   252  000819  20                 	db	32
   253  00081A  48                 	db	72
   254  00081B  54                 	db	84
   255  00081C  4C                 	db	76
   256  00081D  41                 	db	65
   257  00081E  42                 	db	66
   258  00081F  4E                 	db	78
   259  000820  45                 	db	69
   260  000821  54                 	db	84
   261  000822  20                 	db	32
   262  000823  42                 	db	66
   263  000824  4F                 	db	79
   264  000825  4F                 	db	79
   265  000826  54                 	db	84
   266  000827  48                 	db	72
   267  000828  21                 	db	33
   268  000829  20                 	db	32
   269  00082A  54                 	db	84
   270  00082B  48                 	db	72
   271  00082C  49                 	db	73
   272  00082D  53                 	db	83
   273  00082E  20                 	db	32
   274  00082F  49                 	db	73
   275  000830  53                 	db	83
   276  000831  20                 	db	32
   277  000832  31                 	db	49
   278  000833  36                 	db	54
   279  000834  20                 	db	32
   280  000835  53                 	db	83
   281  000836  45                 	db	69
   282  000837  47                 	db	71
   283  000838  4D                 	db	77
   284  000839  45                 	db	69
   285  00083A  4E                 	db	78
   286  00083B  54                 	db	84
   287  00083C  20                 	db	32
   288  00083D  39                 	db	57
   289  00083E  20                 	db	32
   290  00083F  44                 	db	68
   291  000840  49                 	db	73
   292  000841  47                 	db	71
   293  000842  49                 	db	73
   294  000843  54                 	db	84
   295  000844  20                 	db	32
   296  000845  44                 	db	68
   297  000846  49                 	db	73
   298  000847  53                 	db	83
   299  000848  50                 	db	80
   300  000849  4C                 	db	76
   301  00084A  41                 	db	65
   302  00084B  59                 	db	89
   303  00084C  00                 	db	0
   304  00084D                     __end_of_DEMO_MESSAGE:
   305                           	opt stack 0
   306  00084D                     STR_1:
   307  00084D  41                 	db	65	;'A'
   308  00084E  42                 	db	66	;'B'
   309  00084F  43                 	db	67	;'C'
   310  000850  44                 	db	68	;'D'
   311  000851  45                 	db	69	;'E'
   312  000852  46                 	db	70	;'F'
   313  000853  47                 	db	71	;'G'
   314  000854  48                 	db	72	;'H'
   315  000855  49                 	db	73	;'I'
   316  000856  00                 	db	0
   317                           
   318                           ; #config settings
   319  000857  00                 	db	0	; dummy byte at the end
   320  0000                     
   321                           	psect	nvCOMRAM
   322  000055                     __pnvCOMRAM:
   323                           	opt stack 0
   324  000055                     _led_stat:
   325                           	opt stack 0
   326  000055                     	ds	1
   327  0000                     _SSPBUF	set	4041
   328  0000                     _SSPCON2bits	set	4037
   329  0000                     _SSPCON1	set	4038
   330  0000                     _SSPADD	set	4040
   331  0000                     _SSPSTAT	set	4039
   332  0000                     _SSPSTATbits	set	4039
   333  0000                     _SSPCON2	set	4037
   334  0000                     _RCREG	set	4014
   335  0000                     _PIR1bits	set	3998
   336  0000                     _SPBRG	set	4015
   337  0000                     _SPBRGH	set	4016
   338  0000                     _BAUDCON	set	4024
   339  0000                     _RCSTA	set	4011
   340  0000                     _INTCONbits	set	4082
   341  0000                     _PIE1bits	set	3997
   342  0000                     _PR2	set	4043
   343  0000                     _TMR2	set	4044
   344  0000                     _T2CON	set	4042
   345  0000                     _LATAbits	set	3977
   346  0000                     _LATCbits	set	3979
   347  0000                     _TRISE	set	3990
   348  0000                     _TRISD	set	3989
   349  0000                     _TRISC	set	3988
   350  0000                     _TRISB	set	3987
   351  0000                     _TRISA	set	3986
   352  0000                     _CMCON	set	4020
   353  0000                     _ADCON1	set	4033
   354  0000                     _LATBbits	set	3978
   355  0000                     _SSPIE	set	31979
   356  0000                     _SSPIF	set	31987
   357  0000                     _BRGH	set	32098
   358                           
   359                           	psect	cinit
   360  000ED6                     __pcinit:
   361                           	opt stack 0
   362  000ED6                     start_initialization:
   363                           	opt stack 0
   364  000ED6                     __initialization:
   365                           	opt stack 0
   366                           
   367                           ; Initialize objects allocated to BIGRAM (258 bytes)
   368                           ; load TBLPTR registers with __pidataBIGRAM
   369  000ED6  0E02               	movlw	low __pidataBIGRAM
   370  000ED8  6EF6               	movwf	tblptrl,c
   371  000EDA  0E0C               	movlw	high __pidataBIGRAM
   372  000EDC  6EF7               	movwf	tblptrh,c
   373  000EDE  0E00               	movlw	low (__pidataBIGRAM shr (0+16))
   374  000EE0  6EF8               	movwf	tblptru,c
   375  000EE2  EE00  F0A7         	lfsr	0,__pdataBIGRAM
   376  000EE6  EE11 F002          	lfsr	1,258
   377  000EEA                     copy_data0:
   378  000EEA  0009               	tblrd		*+
   379  000EEC  CFF5 FFEE          	movff	tablat,postinc0
   380  000EF0  50E5               	movf	postdec1,w,c
   381  000EF2  50E1               	movf	fsr1l,w,c
   382  000EF4  E1FA               	bnz	copy_data0
   383  000EF6  50E2               	movf	fsr1h,w,c
   384  000EF8  E1F8               	bnz	copy_data0
   385                           
   386                           ; Initialize objects allocated to BANK0 (36 bytes)
   387                           ; load TBLPTR registers with __pidataBANK0
   388  000EFA  0E3A               	movlw	low __pidataBANK0
   389  000EFC  6EF6               	movwf	tblptrl,c
   390  000EFE  0E0F               	movlw	high __pidataBANK0
   391  000F00  6EF7               	movwf	tblptrh,c
   392  000F02  0E00               	movlw	low (__pidataBANK0 shr (0+16))
   393  000F04  6EF8               	movwf	tblptru,c
   394  000F06  EE00  F060         	lfsr	0,__pdataBANK0
   395  000F0A  EE10 F024          	lfsr	1,36
   396  000F0E                     copy_data1:
   397  000F0E  0009               	tblrd		*+
   398  000F10  CFF5 FFEE          	movff	tablat,postinc0
   399  000F14  50E5               	movf	postdec1,w,c
   400  000F16  50E1               	movf	fsr1l,w,c
   401  000F18  E1FA               	bnz	copy_data1
   402                           
   403                           ; Clear objects allocated to BANK0 (2 bytes)
   404  000F1A  0100               	movlb	0
   405  000F1C  6BA6               	clrf	(__pbssBANK0+1)& (0+255),b
   406  000F1E  6BA5               	clrf	__pbssBANK0& (0+255),b
   407                           
   408                           ; Clear objects allocated to COMRAM (4 bytes)
   409  000F20  6A54               	clrf	(__pbssCOMRAM+3)& (0+255),c
   410  000F22  6A53               	clrf	(__pbssCOMRAM+2)& (0+255),c
   411  000F24  6A52               	clrf	(__pbssCOMRAM+1)& (0+255),c
   412  000F26  6A51               	clrf	__pbssCOMRAM& (0+255),c
   413  000F28                     end_of_initialization:
   414                           	opt stack 0
   415  000F28                     __end_of__initialization:
   416                           	opt stack 0
   417  000F28  9056               	bcf	int$flags,0,c	;clear compiler interrupt flag (level 1)
   418  000F2A  9256               	bcf	int$flags,1,c	;clear compiler interrupt flag (level 2)
   419  000F2C  0E00               	movlw	low (__Lsmallconst shr (0+16))
   420  000F2E  6EF8               	movwf	tblptru,c
   421  000F30  0E08               	movlw	high __Lsmallconst
   422  000F32  6EF7               	movwf	tblptrh,c
   423  000F34  0100               	movlb	0
   424  000F36  EF55  F005         	goto	_main	;jump to C main() function
   425                           tblptru	equ	0xFF8
   426                           tblptrh	equ	0xFF7
   427                           tblptrl	equ	0xFF6
   428                           tablat	equ	0xFF5
   429                           postinc0	equ	0xFEE
   430                           postdec1	equ	0xFE5
   431                           fsr1h	equ	0xFE2
   432                           fsr1l	equ	0xFE1
   433                           
   434                           	psect	bssCOMRAM
   435  000051                     __pbssCOMRAM:
   436                           	opt stack 0
   437  000051                     _divisor:
   438                           	opt stack 0
   439  000051                     	ds	2
   440  000053                     _digitPtr:
   441                           	opt stack 0
   442  000053                     	ds	2
   443                           tblptru	equ	0xFF8
   444                           tblptrh	equ	0xFF7
   445                           tblptrl	equ	0xFF6
   446                           tablat	equ	0xFF5
   447                           postinc0	equ	0xFEE
   448                           postdec1	equ	0xFE5
   449                           fsr1h	equ	0xFE2
   450                           fsr1l	equ	0xFE1
   451                           
   452                           	psect	bssBANK0
   453  0000A5                     __pbssBANK0:
   454                           	opt stack 0
   455  0000A5                     _tmrIsr:
   456                           	opt stack 0
   457  0000A5                     	ds	2
   458                           tblptru	equ	0xFF8
   459                           tblptrh	equ	0xFF7
   460                           tblptrl	equ	0xFF6
   461                           tablat	equ	0xFF5
   462                           postinc0	equ	0xFEE
   463                           postdec1	equ	0xFE5
   464                           fsr1h	equ	0xFE2
   465                           fsr1l	equ	0xFE1
   466                           
   467                           	psect	dataBANK0
   468  000060                     __pdataBANK0:
   469                           	opt stack 0
   470  000060                     _segMap:
   471                           	opt stack 0
   472  000060                     	ds	36
   473                           tblptru	equ	0xFF8
   474                           tblptrh	equ	0xFF7
   475                           tblptrl	equ	0xFF6
   476                           tablat	equ	0xFF5
   477                           postinc0	equ	0xFEE
   478                           postdec1	equ	0xFE5
   479                           fsr1h	equ	0xFE2
   480                           fsr1l	equ	0xFE1
   481                           
   482                           	psect	dataBIGRAM
   483  0000A7                     __pdataBIGRAM:
   484                           	opt stack 0
   485  0000A7                     _fontList:
   486                           	opt stack 0
   487  0000A7                     	ds	258
   488                           tblptru	equ	0xFF8
   489                           tblptrh	equ	0xFF7
   490                           tblptrl	equ	0xFF6
   491                           tablat	equ	0xFF5
   492                           postinc0	equ	0xFEE
   493                           postdec1	equ	0xFE5
   494                           fsr1h	equ	0xFE2
   495                           fsr1l	equ	0xFE1
   496                           
   497                           	psect	cstackBANK0
   498  000084                     __pcstackBANK0:
   499                           	opt stack 0
   500  000084                     setMsg@input:
   501                           	opt stack 0
   502                           
   503                           ; 2 bytes @ 0x0
   504  000084                     	ds	2
   505  000086                     ??_setMsg:
   506                           
   507                           ; 1 bytes @ 0x2
   508  000086                     	ds	10
   509  000090                     setMsg@i:
   510                           	opt stack 0
   511                           
   512                           ; 2 bytes @ 0xC
   513  000090                     	ds	2
   514  000092                     ??_main:
   515                           
   516                           ; 1 bytes @ 0xE
   517  000092                     	ds	12
   518  00009E                     main@dotflag:
   519                           	opt stack 0
   520                           
   521                           ; 4 bytes @ 0x1A
   522  00009E                     	ds	4
   523  0000A2                     main@digitSelector:
   524                           	opt stack 0
   525                           
   526                           ; 2 bytes @ 0x1E
   527  0000A2                     	ds	2
   528  0000A4                     main@RxData:
   529                           	opt stack 0
   530                           
   531                           ; 1 bytes @ 0x20
   532  0000A4                     	ds	1
   533                           tblptru	equ	0xFF8
   534                           tblptrh	equ	0xFF7
   535                           tblptrl	equ	0xFF6
   536                           tablat	equ	0xFF5
   537                           postinc0	equ	0xFEE
   538                           postdec1	equ	0xFE5
   539                           fsr1h	equ	0xFE2
   540                           fsr1l	equ	0xFE1
   541                           
   542                           	psect	cstackCOMRAM
   543  000001                     __pcstackCOMRAM:
   544                           	opt stack 0
   545  000001                     ?___awmod:
   546                           	opt stack 0
   547  000001                     refreshShiftRegister@ptr:
   548                           	opt stack 0
   549  000001                     ___awmod@dividend:
   550                           	opt stack 0
   551                           
   552                           ; 2 bytes @ 0x0
   553  000001                     	ds	2
   554  000003                     ??_refreshShiftRegister:
   555  000003                     ___awmod@divisor:
   556                           	opt stack 0
   557                           
   558                           ; 2 bytes @ 0x2
   559  000003                     	ds	2
   560  000005                     ___awmod@counter:
   561                           	opt stack 0
   562                           
   563                           ; 1 bytes @ 0x4
   564  000005                     	ds	1
   565  000006                     ___awmod@sign:
   566                           	opt stack 0
   567                           
   568                           ; 1 bytes @ 0x5
   569  000006                     	ds	49
   570  000037                     refreshShiftRegister@map:
   571                           	opt stack 0
   572                           
   573                           ; 4 bytes @ 0x36
   574  000037                     	ds	4
   575  00003B                     refreshShiftRegister@ledSelector:
   576                           	opt stack 0
   577                           
   578                           ; 2 bytes @ 0x3A
   579  00003B                     	ds	2
   580  00003D                     refreshShiftRegister@i:
   581                           	opt stack 0
   582                           
   583                           ; 2 bytes @ 0x3C
   584  00003D                     	ds	2
   585  00003F                     ??_isr:
   586                           
   587                           ; 1 bytes @ 0x3E
   588  00003F                     	ds	18
   589                           tblptru	equ	0xFF8
   590                           tblptrh	equ	0xFF7
   591                           tblptrl	equ	0xFF6
   592                           tablat	equ	0xFF5
   593                           postinc0	equ	0xFEE
   594                           postdec1	equ	0xFE5
   595                           fsr1h	equ	0xFE2
   596                           fsr1l	equ	0xFE1
   597                           
   598 ;;
   599 ;;Main: autosize = 0, tempsize = 12, incstack = 0, save=0
   600 ;;
   601 ;; *************** function _main *****************
   602 ;; Defined at:
   603 ;;		line 94 in file "main.c"
   604 ;; Parameters:    Size  Location     Type
   605 ;;		None
   606 ;; Auto vars:     Size  Location     Type
   607 ;;  dotflag         4   26[BANK0 ] unsigned long 
   608 ;;  digitSelecto    2   30[BANK0 ] short 
   609 ;;  RxData          1   32[BANK0 ] unsigned char 
   610 ;; Return value:  Size  Location     Type
   611 ;;                  1    wreg      void 
   612 ;; Registers used:
   613 ;;		wreg, fsr2l, fsr2h, status,2, status,0, tblptrl, tblptrh, tblptru, prodl, prodh, cstack
   614 ;; Tracked objects:
   615 ;;		On entry : 0/0
   616 ;;		On exit  : 0/0
   617 ;;		Unchanged: 0/0
   618 ;; Data sizes:     COMRAM   BANK0   BANK1   BANK2   BANK3   BANK4   BANK5   BANK6   BANK7
   619 ;;      Params:         0       0       0       0       0       0       0       0       0
   620 ;;      Locals:         0       7       0       0       0       0       0       0       0
   621 ;;      Temps:          0      12       0       0       0       0       0       0       0
   622 ;;      Totals:         0      19       0       0       0       0       0       0       0
   623 ;;Total ram usage:       19 bytes
   624 ;; Hardware stack levels required when called:    3
   625 ;; This function calls:
   626 ;;		_setMsg
   627 ;; This function is called by:
   628 ;;		Startup code after reset
   629 ;; This function uses a non-reentrant model
   630 ;;
   631                           
   632                           	psect	text0
   633  000AAA                     __ptext0:
   634                           	opt stack 0
   635  000AAA                     _main:
   636                           	opt stack 28
   637                           
   638                           ;main.c: 96: ADCON1 = 0b00001111;
   639                           
   640                           ;incstack = 0
   641  000AAA  0E0F               	movlw	15
   642  000AAC  6EC1               	movwf	4033,c	;volatile
   643                           
   644                           ;main.c: 97: CMCON = 0b00000111;
   645  000AAE  0E07               	movlw	7
   646  000AB0  6EB4               	movwf	4020,c	;volatile
   647                           
   648                           ;main.c: 98: TRISA = 0b00000000;
   649  000AB2  0E00               	movlw	0
   650  000AB4  6E92               	movwf	3986,c	;volatile
   651                           
   652                           ;main.c: 99: TRISB = 0b00000000;
   653  000AB6  0E00               	movlw	0
   654  000AB8  6E93               	movwf	3987,c	;volatile
   655                           
   656                           ;main.c: 100: TRISC = 0b10000000;
   657  000ABA  0E80               	movlw	128
   658  000ABC  6E94               	movwf	3988,c	;volatile
   659                           
   660                           ;main.c: 101: TRISD = 0b00000000;
   661  000ABE  0E00               	movlw	0
   662  000AC0  6E95               	movwf	3989,c	;volatile
   663                           
   664                           ;main.c: 102: TRISE = 0b00000000;
   665  000AC2  0E00               	movlw	0
   666  000AC4  6E96               	movwf	3990,c	;volatile
   667                           
   668                           ;main.c: 104: LATCbits.LATC0 = 0;
   669  000AC6  908B               	bcf	3979,0,c	;volatile
   670                           
   671                           ;main.c: 105: LATCbits.LATC1 = 1;
   672  000AC8  828B               	bsf	3979,1,c	;volatile
   673                           
   674                           ;main.c: 107: LATCbits.LATC2 = 0;
   675  000ACA  948B               	bcf	3979,2,c	;volatile
   676                           
   677                           ;main.c: 110: LATAbits.LATA4 = 0;
   678  000ACC  9889               	bcf	3977,4,c	;volatile
   679                           
   680                           ;main.c: 111: LATAbits.LATA5 = 0;
   681  000ACE  9A89               	bcf	3977,5,c	;volatile
   682                           
   683                           ;main.c: 124: T2CON = 0;
   684  000AD0  0E00               	movlw	0
   685  000AD2  6ECA               	movwf	4042,c	;volatile
   686                           
   687                           ;main.c: 125: TMR2 = 0;
   688  000AD4  0E00               	movlw	0
   689  000AD6  6ECC               	movwf	4044,c	;volatile
   690                           
   691                           ;main.c: 126: PR2 = 125;
   692  000AD8  0E7D               	movlw	125
   693  000ADA  6ECB               	movwf	4043,c	;volatile
   694                           
   695                           ;main.c: 127: T2CON = 0b01111101;
   696  000ADC  0E7D               	movlw	125
   697  000ADE  6ECA               	movwf	4042,c	;volatile
   698                           
   699                           ;main.c: 130: PIE1bits.TMR2IE = 1;
   700  000AE0  829D               	bsf	3997,1,c	;volatile
   701                           
   702                           ;main.c: 131: INTCONbits.PEIE = 1;
   703  000AE2  8CF2               	bsf	intcon,6,c	;volatile
   704                           
   705                           ;main.c: 132: INTCONbits.GIE = 1;
   706  000AE4  8EF2               	bsf	intcon,7,c	;volatile
   707                           
   708                           ;main.c: 135: RCSTA = 0b10010000;
   709  000AE6  0E90               	movlw	144
   710  000AE8  6EAB               	movwf	4011,c	;volatile
   711                           
   712                           ;main.c: 136: BAUDCON = 0b00001000;
   713  000AEA  0E08               	movlw	8
   714  000AEC  6EB8               	movwf	4024,c	;volatile
   715                           
   716                           ;main.c: 137: SPBRGH = 0;
   717  000AEE  0E00               	movlw	0
   718  000AF0  6EB0               	movwf	4016,c	;volatile
   719                           
   720                           ;main.c: 138: BRGH = 0;
   721  000AF2  94AC               	bcf	4012,2,c	;volatile
   722                           
   723                           ;main.c: 139: SPBRG = 129;
   724  000AF4  0E81               	movlw	129
   725  000AF6  6EAF               	movwf	4015,c	;volatile
   726                           
   727                           ;main.c: 141: led_stat = 0b11110011;
   728  000AF8  0EF3               	movlw	243
   729  000AFA  6E55               	movwf	_led_stat,c
   730                           
   731                           ;main.c: 143: char RxData;
   732                           ;main.c: 144: short digitSelector;
   733                           ;main.c: 145: unsigned long dotflag;
   734                           ;main.c: 148: setMsg("ABCDEFGHI");
   735  000AFC  0E4D               	movlw	low STR_1
   736  000AFE  0100               	movlb	0	; () banked
   737  000B00  6F84               	movwf	setMsg@input& (0+255),b
   738  000B02  0E08               	movlw	high STR_1
   739  000B04  6F85               	movwf	(setMsg@input+1)& (0+255),b
   740  000B06  ECED  F006         	call	_setMsg	;wreg free
   741  000B0A                     l1084:
   742                           
   743                           ;main.c: 152: if (PIR1bits.RCIF) {
   744  000B0A  AA9E               	btfss	3998,5,c	;volatile
   745  000B0C  D070               	goto	l84
   746                           
   747                           ;main.c: 153: PIR1bits.RCIF = 0;
   748  000B0E  9A9E               	bcf	3998,5,c	;volatile
   749                           
   750                           ;main.c: 154: RxData = RCREG;
   751  000B10  CFAE F0A4          	movff	4014,main@RxData	;volatile
   752                           
   753                           ;main.c: 157: if ((RxData & 0b11100000) == 0b11100000) {
   754  000B14  0100               	movlb	0	; () banked
   755  000B16  51A4               	movf	main@RxData& (0+255),w,b
   756  000B18  0BE0               	andlw	224
   757  000B1A  0AE0               	xorlw	224
   758  000B1C  A4D8               	btfss	status,2,c
   759  000B1E  D067               	goto	l84
   760                           
   761                           ; BSR set to: 0
   762                           ;main.c: 158: digitSelector = (RxData & 0b00001111);
   763  000B20  C0A4  F092         	movff	main@RxData,??_main
   764  000B24  0E0F               	movlw	15
   765  000B26  1792               	andwf	??_main& (0+255),f,b
   766  000B28  5192               	movf	??_main& (0+255),w,b
   767  000B2A  6FA2               	movwf	main@digitSelector& (0+255),b
   768  000B2C  6BA3               	clrf	(main@digitSelector+1)& (0+255),b
   769                           
   770                           ;main.c: 159: dotflag = (RxData & 0b00010000) >> 4;
   771  000B2E  C0A4  F092         	movff	main@RxData,??_main
   772  000B32  3B92               	swapf	??_main& (0+255),f,b
   773  000B34  0E0F               	movlw	15
   774  000B36  1792               	andwf	??_main& (0+255),f,b
   775  000B38  0E01               	movlw	1
   776  000B3A  1792               	andwf	??_main& (0+255),f,b
   777  000B3C  5192               	movf	??_main& (0+255),w,b
   778  000B3E  6F9E               	movwf	main@dotflag& (0+255),b
   779  000B40  6B9F               	clrf	(main@dotflag+1)& (0+255),b
   780  000B42  6BA0               	clrf	(main@dotflag+2)& (0+255),b
   781  000B44  6BA1               	clrf	(main@dotflag+3)& (0+255),b
   782  000B46                     
   783                           ; BSR set to: 0
   784  000B46  AA9E               	btfss	3998,5,c	;volatile
   785  000B48  D7FE               	goto	l86
   786                           
   787                           ;main.c: 161: PIR1bits.RCIF = 0;
   788  000B4A  9A9E               	bcf	3998,5,c	;volatile
   789                           
   790                           ;main.c: 162: RxData = RCREG;
   791  000B4C  CFAE F0A4          	movff	4014,main@RxData	;volatile
   792                           
   793                           ;main.c: 163: if (digitSelector > 8) continue;
   794  000B50  0100               	movlb	0	; () banked
   795  000B52  BFA3               	btfsc	(main@digitSelector+1)& (0+255),7,b
   796  000B54  D006               	goto	l88
   797  000B56  51A3               	movf	(main@digitSelector+1)& (0+255),w,b
   798  000B58  E1D8               	bnz	l1084
   799  000B5A  0E09               	movlw	9
   800  000B5C  5DA2               	subwf	main@digitSelector& (0+255),w,b
   801  000B5E  B0D8               	btfsc	status,0,c
   802  000B60  D7D4               	goto	l82
   803  000B62                     l88:
   804                           
   805                           ; BSR set to: 0
   806                           ;main.c: 164: if (RxData > 0b01111111) RxData = ~RxData;
   807                           
   808                           ; BSR set to: 0
   809  000B62  0E7F               	movlw	127
   810  000B64  65A4               	cpfsgt	main@RxData& (0+255),b
   811  000B66  D001               	goto	l90
   812                           
   813                           ; BSR set to: 0
   814  000B68  1FA4               	comf	main@RxData& (0+255),f,b
   815  000B6A                     l90:
   816                           
   817                           ; BSR set to: 0
   818                           ;main.c: 165: segMap[digitSelector] = ~(fontList[RxData] | (dotflag << 16));
   819                           
   820                           ; BSR set to: 0
   821  000B6A  C09E  F092         	movff	main@dotflag,??_main
   822  000B6E  C09F  F093         	movff	main@dotflag+1,??_main+1
   823  000B72  C0A0  F094         	movff	main@dotflag+2,??_main+2
   824  000B76  C0A1  F095         	movff	main@dotflag+3,??_main+3
   825  000B7A  C093  F095         	movff	??_main+1,??_main+3
   826  000B7E  C092  F094         	movff	??_main,??_main+2
   827  000B82  6B93               	clrf	(??_main+1)& (0+255),b
   828  000B84  6B92               	clrf	??_main& (0+255),b
   829  000B86  51A4               	movf	main@RxData& (0+255),w,b
   830  000B88  0D02               	mullw	2
   831  000B8A  0EA7               	movlw	low _fontList
   832  000B8C  24F3               	addwf	prodl,w,c
   833  000B8E  6ED9               	movwf	fsr2l,c
   834  000B90  0E00               	movlw	high _fontList
   835  000B92  20F4               	addwfc	prodh,w,c
   836  000B94  6EDA               	movwf	fsr2h,c
   837  000B96  CFDE F096          	movff	postinc2,??_main+4
   838  000B9A  CFDD F097          	movff	postdec2,??_main+5
   839  000B9E  5196               	movf	(??_main+4)& (0+255),w,b
   840  000BA0  1192               	iorwf	??_main& (0+255),w,b
   841  000BA2  6F98               	movwf	(??_main+6)& (0+255),b
   842  000BA4  5197               	movf	(??_main+5)& (0+255),w,b
   843  000BA6  1193               	iorwf	(??_main+1)& (0+255),w,b
   844  000BA8  6F99               	movwf	(??_main+7)& (0+255),b
   845  000BAA  0E00               	movlw	0
   846  000BAC  1194               	iorwf	(??_main+2)& (0+255),w,b
   847  000BAE  6F9A               	movwf	(??_main+8)& (0+255),b
   848  000BB0  0E00               	movlw	0
   849  000BB2  1195               	iorwf	(??_main+3)& (0+255),w,b
   850  000BB4  6F9B               	movwf	(??_main+9)& (0+255),b
   851  000BB6  1F98               	comf	(??_main+6)& (0+255),f,b
   852  000BB8  1F99               	comf	(??_main+7)& (0+255),f,b
   853  000BBA  1F9A               	comf	(??_main+8)& (0+255),f,b
   854  000BBC  1F9B               	comf	(??_main+9)& (0+255),f,b
   855  000BBE  0E60               	movlw	low _segMap
   856  000BC0  6F9C               	movwf	(??_main+10)& (0+255),b
   857  000BC2  0E00               	movlw	high _segMap
   858  000BC4  6F9D               	movwf	(??_main+11)& (0+255),b
   859  000BC6  90D8               	bcf	status,0,c
   860  000BC8  35A2               	rlcf	main@digitSelector& (0+255),w,b
   861  000BCA  6ED9               	movwf	fsr2l,c
   862  000BCC  35A3               	rlcf	(main@digitSelector+1)& (0+255),w,b
   863  000BCE  6EDA               	movwf	fsr2h,c
   864  000BD0  90D8               	bcf	status,0,c
   865  000BD2  36D9               	rlcf	fsr2l,f,c
   866  000BD4  36DA               	rlcf	fsr2h,f,c
   867  000BD6  519C               	movf	(??_main+10)& (0+255),w,b
   868  000BD8  26D9               	addwf	fsr2l,f,c
   869  000BDA  519D               	movf	(??_main+11)& (0+255),w,b
   870  000BDC  22DA               	addwfc	fsr2h,f,c
   871  000BDE  C098  FFDE         	movff	??_main+6,postinc2
   872  000BE2  C099  FFDE         	movff	??_main+7,postinc2
   873  000BE6  C09A  FFDE         	movff	??_main+8,postinc2
   874  000BEA  C09B  FFDE         	movff	??_main+9,postinc2
   875  000BEE                     l84:
   876                           
   877                           ;main.c: 166: }
   878                           ;main.c: 167: }
   879                           ;main.c: 168: if (tmrIsr == 1) {
   880                           
   881                           ; BSR set to: 0
   882                           
   883                           ; BSR set to: 0
   884  000BEE  0100               	movlb	0	; () banked
   885  000BF0  05A5               	decf	_tmrIsr& (0+255),w,b
   886  000BF2  11A6               	iorwf	(_tmrIsr+1)& (0+255),w,b
   887  000BF4  A4D8               	btfss	status,2,c
   888  000BF6  D789               	goto	l82
   889                           
   890                           ; BSR set to: 0
   891                           ;main.c: 169: tmrIsr = 0;
   892  000BF8  0E00               	movlw	0
   893  000BFA  6FA6               	movwf	(_tmrIsr+1)& (0+255),b
   894  000BFC  0E00               	movlw	0
   895  000BFE  6FA5               	movwf	_tmrIsr& (0+255),b
   896                           
   897                           ; BSR set to: 0
   898                           
   899                           ; BSR set to: 0
   900  000C00  D784               	goto	l82
   901  000C02                     __end_of_main:
   902                           	opt stack 0
   903                           tblptru	equ	0xFF8
   904                           tblptrh	equ	0xFF7
   905                           tblptrl	equ	0xFF6
   906                           tablat	equ	0xFF5
   907                           prodh	equ	0xFF4
   908                           prodl	equ	0xFF3
   909                           intcon	equ	0xFF2
   910                           postinc0	equ	0xFEE
   911                           postdec1	equ	0xFE5
   912                           fsr1h	equ	0xFE2
   913                           fsr1l	equ	0xFE1
   914                           postinc2	equ	0xFDE
   915                           postdec2	equ	0xFDD
   916                           fsr2h	equ	0xFDA
   917                           fsr2l	equ	0xFD9
   918                           status	equ	0xFD8
   919                           
   920 ;; *************** function _setMsg *****************
   921 ;; Defined at:
   922 ;;		line 62 in file "main.c"
   923 ;; Parameters:    Size  Location     Type
   924 ;;  input           2    0[BANK0 ] PTR unsigned char 
   925 ;;		 -> STR_1(10), 
   926 ;; Auto vars:     Size  Location     Type
   927 ;;  i               2   12[BANK0 ] int 
   928 ;; Return value:  Size  Location     Type
   929 ;;                  1    wreg      void 
   930 ;; Registers used:
   931 ;;		wreg, fsr2l, fsr2h, status,2, status,0, tblptrl, tblptrh, tblptru, prodl, prodh
   932 ;; Tracked objects:
   933 ;;		On entry : 0/0
   934 ;;		On exit  : 0/0
   935 ;;		Unchanged: 0/0
   936 ;; Data sizes:     COMRAM   BANK0   BANK1   BANK2   BANK3   BANK4   BANK5   BANK6   BANK7
   937 ;;      Params:         0       2       0       0       0       0       0       0       0
   938 ;;      Locals:         0       2       0       0       0       0       0       0       0
   939 ;;      Temps:          0      10       0       0       0       0       0       0       0
   940 ;;      Totals:         0      14       0       0       0       0       0       0       0
   941 ;;Total ram usage:       14 bytes
   942 ;; Hardware stack levels used:    1
   943 ;; Hardware stack levels required when called:    2
   944 ;; This function calls:
   945 ;;		Nothing
   946 ;; This function is called by:
   947 ;;		_main
   948 ;; This function uses a non-reentrant model
   949 ;;
   950                           
   951                           	psect	text1
   952  000DDA                     __ptext1:
   953                           	opt stack 0
   954  000DDA                     _setMsg:
   955                           	opt stack 28
   956                           
   957                           ;main.c: 63: for (int i = 0; i < 9; i++) {
   958                           
   959                           ; BSR set to: 0
   960                           ;incstack = 0
   961  000DDA  0E00               	movlw	0
   962  000DDC  0100               	movlb	0	; () banked
   963  000DDE  6F91               	movwf	(setMsg@i+1)& (0+255),b
   964  000DE0  0E00               	movlw	0
   965  000DE2  6F90               	movwf	setMsg@i& (0+255),b
   966  000DE4                     l974:
   967                           
   968                           ; BSR set to: 0
   969  000DE4  BF91               	btfsc	(setMsg@i+1)& (0+255),7,b
   970  000DE6  D006               	goto	l68
   971  000DE8  5191               	movf	(setMsg@i+1)& (0+255),w,b
   972  000DEA  E13C               	bnz	l70
   973  000DEC  0E09               	movlw	9
   974  000DEE  5D90               	subwf	setMsg@i& (0+255),w,b
   975  000DF0  B0D8               	btfsc	status,0,c
   976  000DF2  0012               	return	
   977  000DF4                     l68:
   978                           
   979                           ; BSR set to: 0
   980                           ;main.c: 64: segMap[i] = ~(fontList[input[i]] | (0 << 16));
   981                           
   982                           ; BSR set to: 0
   983  000DF4  5190               	movf	setMsg@i& (0+255),w,b
   984  000DF6  2584               	addwf	setMsg@input& (0+255),w,b
   985  000DF8  6F86               	movwf	??_setMsg& (0+255),b
   986  000DFA  5191               	movf	(setMsg@i+1)& (0+255),w,b
   987  000DFC  2185               	addwfc	(setMsg@input+1)& (0+255),w,b
   988  000DFE  6F87               	movwf	(??_setMsg+1)& (0+255),b
   989  000E00  C086  FFF6         	movff	??_setMsg,tblptrl
   990  000E04  C087  FFF7         	movff	??_setMsg+1,tblptrh
   991  000E08                     	if	0	;tblptru may be non-zero
   992  000E08                     	endif
   993  000E08                     	if	0	;tblptru may be non-zero
   994  000E08                     	endif
   995  000E08  0008               	tblrd		*
   996  000E0A  50F5               	movf	tablat,w,c
   997  000E0C  0D02               	mullw	2
   998  000E0E  0EA7               	movlw	low _fontList
   999  000E10  24F3               	addwf	prodl,w,c
  1000  000E12  6ED9               	movwf	fsr2l,c
  1001  000E14  0E00               	movlw	high _fontList
  1002  000E16  20F4               	addwfc	prodh,w,c
  1003  000E18  6EDA               	movwf	fsr2h,c
  1004  000E1A  CFDE F088          	movff	postinc2,??_setMsg+2
  1005  000E1E  CFDD F089          	movff	postdec2,??_setMsg+3
  1006  000E22  1D88               	comf	(??_setMsg+2)& (0+255),w,b
  1007  000E24  6F8A               	movwf	(??_setMsg+4)& (0+255),b
  1008  000E26  1D89               	comf	(??_setMsg+3)& (0+255),w,b
  1009  000E28  6F8B               	movwf	(??_setMsg+5)& (0+255),b
  1010  000E2A  6B8C               	clrf	(??_setMsg+6)& (0+255),b
  1011  000E2C  6B8D               	clrf	(??_setMsg+7)& (0+255),b
  1012  000E2E  0E60               	movlw	low _segMap
  1013  000E30  6F8E               	movwf	(??_setMsg+8)& (0+255),b
  1014  000E32  0E00               	movlw	high _segMap
  1015  000E34  6F8F               	movwf	(??_setMsg+9)& (0+255),b
  1016  000E36  90D8               	bcf	status,0,c
  1017  000E38  3590               	rlcf	setMsg@i& (0+255),w,b
  1018  000E3A  6ED9               	movwf	fsr2l,c
  1019  000E3C  3591               	rlcf	(setMsg@i+1)& (0+255),w,b
  1020  000E3E  6EDA               	movwf	fsr2h,c
  1021  000E40  90D8               	bcf	status,0,c
  1022  000E42  36D9               	rlcf	fsr2l,f,c
  1023  000E44  36DA               	rlcf	fsr2h,f,c
  1024  000E46  518E               	movf	(??_setMsg+8)& (0+255),w,b
  1025  000E48  26D9               	addwf	fsr2l,f,c
  1026  000E4A  518F               	movf	(??_setMsg+9)& (0+255),w,b
  1027  000E4C  22DA               	addwfc	fsr2h,f,c
  1028  000E4E  C08A  FFDE         	movff	??_setMsg+4,postinc2
  1029  000E52  C08B  FFDE         	movff	??_setMsg+5,postinc2
  1030  000E56  C08C  FFDE         	movff	??_setMsg+6,postinc2
  1031  000E5A  C08D  FFDE         	movff	??_setMsg+7,postinc2
  1032                           
  1033                           ; BSR set to: 0
  1034  000E5E  4B90               	infsnz	setMsg@i& (0+255),f,b
  1035  000E60  2B91               	incf	(setMsg@i+1)& (0+255),f,b
  1036  000E62  D7C0               	goto	l974
  1037  000E64                     l70:
  1038                           
  1039                           ; BSR set to: 0
  1040  000E64  0012               	return		;funcret
  1041  000E66                     __end_of_setMsg:
  1042                           	opt stack 0
  1043                           tblptru	equ	0xFF8
  1044                           tblptrh	equ	0xFF7
  1045                           tblptrl	equ	0xFF6
  1046                           tablat	equ	0xFF5
  1047                           prodh	equ	0xFF4
  1048                           prodl	equ	0xFF3
  1049                           intcon	equ	0xFF2
  1050                           postinc0	equ	0xFEE
  1051                           postdec1	equ	0xFE5
  1052                           fsr1h	equ	0xFE2
  1053                           fsr1l	equ	0xFE1
  1054                           postinc2	equ	0xFDE
  1055                           postdec2	equ	0xFDD
  1056                           fsr2h	equ	0xFDA
  1057                           fsr2l	equ	0xFD9
  1058                           status	equ	0xFD8
  1059                           
  1060 ;; *************** function _isr *****************
  1061 ;; Defined at:
  1062 ;;		line 186 in file "main.c"
  1063 ;; Parameters:    Size  Location     Type
  1064 ;;		None
  1065 ;; Auto vars:     Size  Location     Type
  1066 ;;		None
  1067 ;; Return value:  Size  Location     Type
  1068 ;;                  1    wreg      void 
  1069 ;; Registers used:
  1070 ;;		wreg, fsr2l, fsr2h, status,2, status,0, cstack
  1071 ;; Tracked objects:
  1072 ;;		On entry : 0/0
  1073 ;;		On exit  : 0/0
  1074 ;;		Unchanged: 0/0
  1075 ;; Data sizes:     COMRAM   BANK0   BANK1   BANK2   BANK3   BANK4   BANK5   BANK6   BANK7
  1076 ;;      Params:         0       0       0       0       0       0       0       0       0
  1077 ;;      Locals:         0       0       0       0       0       0       0       0       0
  1078 ;;      Temps:         18       0       0       0       0       0       0       0       0
  1079 ;;      Totals:        18       0       0       0       0       0       0       0       0
  1080 ;;Total ram usage:       18 bytes
  1081 ;; Hardware stack levels used:    1
  1082 ;; Hardware stack levels required when called:    1
  1083 ;; This function calls:
  1084 ;;		___awmod
  1085 ;;		_refreshShiftRegister
  1086 ;;		_timerfunc
  1087 ;; This function is called by:
  1088 ;;		Interrupt level 2
  1089 ;; This function uses a non-reentrant model
  1090 ;;
  1091                           
  1092                           	psect	intcode
  1093  000008                     __pintcode:
  1094                           	opt stack 0
  1095  000008                     _isr:
  1096                           	opt stack 28
  1097                           
  1098                           ; BSR set to: 0
  1099                           ;incstack = 0
  1100  000008  8256               	bsf	btemp,1,c	;set compiler interrupt flag (level 2)
  1101  00000A  ED82  F006         	call	int_func,f	;refresh shadow registers
  1102                           tblptru	equ	0xFF8
  1103                           tblptrh	equ	0xFF7
  1104                           tblptrl	equ	0xFF6
  1105                           tablat	equ	0xFF5
  1106                           prodh	equ	0xFF4
  1107                           prodl	equ	0xFF3
  1108                           intcon	equ	0xFF2
  1109                           postinc0	equ	0xFEE
  1110                           postdec1	equ	0xFE5
  1111                           fsr1h	equ	0xFE2
  1112                           fsr1l	equ	0xFE1
  1113                           postinc2	equ	0xFDE
  1114                           postdec2	equ	0xFDD
  1115                           fsr2h	equ	0xFDA
  1116                           fsr2l	equ	0xFD9
  1117                           status	equ	0xFD8
  1118                           
  1119                           	psect	intcode_body
  1120  000D04                     __pintcode_body:
  1121                           	opt stack 28
  1122  000D04                     int_func:
  1123                           	opt stack 28
  1124  000D04  0006               	pop		; remove dummy address from shadow register refresh
  1125  000D06  CFFA F03F          	movff	pclath,??_isr
  1126  000D0A  CFFB F040          	movff	pclatu,??_isr+1
  1127  000D0E  CFE9 F041          	movff	fsr0l,??_isr+2
  1128  000D12  CFEA F042          	movff	fsr0h,??_isr+3
  1129  000D16  CFE1 F043          	movff	fsr1l,??_isr+4
  1130  000D1A  CFE2 F044          	movff	fsr1h,??_isr+5
  1131  000D1E  CFD9 F045          	movff	fsr2l,??_isr+6
  1132  000D22  CFDA F046          	movff	fsr2h,??_isr+7
  1133  000D26  CFF3 F047          	movff	prodl,??_isr+8
  1134  000D2A  CFF4 F048          	movff	prodh,??_isr+9
  1135  000D2E  CFF6 F049          	movff	tblptrl,??_isr+10
  1136  000D32  CFF7 F04A          	movff	tblptrh,??_isr+11
  1137  000D36  CFF8 F04B          	movff	tblptru,??_isr+12
  1138  000D3A  CFF5 F04C          	movff	tablat,??_isr+13
  1139  000D3E  C056  F04D         	movff	btemp,??_isr+14
  1140  000D42  C057  F04E         	movff	btemp+1,??_isr+15
  1141  000D46  C058  F04F         	movff	btemp+2,??_isr+16
  1142  000D4A  C059  F050         	movff	btemp+3,??_isr+17
  1143                           
  1144                           ;main.c: 187: if (PIR1bits.TMR2IF) {
  1145  000D4E  A29E               	btfss	3998,1,c	;volatile
  1146  000D50  D01E               	goto	i2l104
  1147                           
  1148                           ;main.c: 188: PIR1bits.TMR2IF = 0;
  1149  000D52  929E               	bcf	3998,1,c	;volatile
  1150                           
  1151                           ;main.c: 189: tmrIsr = 1;
  1152  000D54  0E00               	movlw	0
  1153  000D56  0100               	movlb	0	; () banked
  1154  000D58  6FA6               	movwf	(_tmrIsr+1)& (0+255),b
  1155  000D5A  0E01               	movlw	1
  1156  000D5C  6FA5               	movwf	_tmrIsr& (0+255),b
  1157                           
  1158                           ; BSR set to: 0
  1159                           ;main.c: 190: timerfunc();
  1160  000D5E  ECAF  F007         	call	_timerfunc	;wreg free
  1161                           
  1162                           ;main.c: 191: refreshShiftRegister(digitPtr);
  1163  000D62  C053  F001         	movff	_digitPtr,refreshShiftRegister@ptr
  1164  000D66  C054  F002         	movff	_digitPtr+1,refreshShiftRegister@ptr+1
  1165  000D6A  EC2C  F004         	call	_refreshShiftRegister	;wreg free
  1166                           
  1167                           ;main.c: 192: digitPtr = (digitPtr+1)%9;
  1168  000D6E  0E01               	movlw	1
  1169  000D70  2453               	addwf	_digitPtr,w,c
  1170  000D72  6E01               	movwf	___awmod@dividend,c
  1171  000D74  0E00               	movlw	0
  1172  000D76  2054               	addwfc	_digitPtr+1,w,c
  1173  000D78  6E02               	movwf	___awmod@dividend+1,c
  1174  000D7A  0E00               	movlw	0
  1175  000D7C  6E04               	movwf	___awmod@divisor+1,c
  1176  000D7E  0E09               	movlw	9
  1177  000D80  6E03               	movwf	___awmod@divisor,c
  1178  000D82  EC33  F007         	call	___awmod	;wreg free
  1179  000D86  C001  F053         	movff	?___awmod,_digitPtr
  1180  000D8A  C002  F054         	movff	?___awmod+1,_digitPtr+1
  1181  000D8E                     i2l104:
  1182  000D8E  C050  F059         	movff	??_isr+17,btemp+3
  1183  000D92  C04F  F058         	movff	??_isr+16,btemp+2
  1184  000D96  C04E  F057         	movff	??_isr+15,btemp+1
  1185  000D9A  C04D  F056         	movff	??_isr+14,btemp
  1186  000D9E  C04C  FFF5         	movff	??_isr+13,tablat
  1187  000DA2  C04B  FFF8         	movff	??_isr+12,tblptru
  1188  000DA6  C04A  FFF7         	movff	??_isr+11,tblptrh
  1189  000DAA  C049  FFF6         	movff	??_isr+10,tblptrl
  1190  000DAE  C048  FFF4         	movff	??_isr+9,prodh
  1191  000DB2  C047  FFF3         	movff	??_isr+8,prodl
  1192  000DB6  C046  FFDA         	movff	??_isr+7,fsr2h
  1193  000DBA  C045  FFD9         	movff	??_isr+6,fsr2l
  1194  000DBE  C044  FFE2         	movff	??_isr+5,fsr1h
  1195  000DC2  C043  FFE1         	movff	??_isr+4,fsr1l
  1196  000DC6  C042  FFEA         	movff	??_isr+3,fsr0h
  1197  000DCA  C041  FFE9         	movff	??_isr+2,fsr0l
  1198  000DCE  C040  FFFB         	movff	??_isr+1,pclatu
  1199  000DD2  C03F  FFFA         	movff	??_isr,pclath
  1200  000DD6  9256               	bcf	btemp,1,c	;clear compiler interrupt flag (level 2)
  1201  000DD8  0011               	retfie		f
  1202  000DDA                     __end_of_isr:
  1203                           	opt stack 0
  1204                           pclatu	equ	0xFFB
  1205                           pclath	equ	0xFFA
  1206                           tblptru	equ	0xFF8
  1207                           tblptrh	equ	0xFF7
  1208                           tblptrl	equ	0xFF6
  1209                           tablat	equ	0xFF5
  1210                           prodh	equ	0xFF4
  1211                           prodl	equ	0xFF3
  1212                           intcon	equ	0xFF2
  1213                           postinc0	equ	0xFEE
  1214                           fsr0h	equ	0xFEA
  1215                           fsr0l	equ	0xFE9
  1216                           postdec1	equ	0xFE5
  1217                           fsr1h	equ	0xFE2
  1218                           fsr1l	equ	0xFE1
  1219                           postinc2	equ	0xFDE
  1220                           postdec2	equ	0xFDD
  1221                           fsr2h	equ	0xFDA
  1222                           fsr2l	equ	0xFD9
  1223                           status	equ	0xFD8
  1224                           
  1225 ;; *************** function _timerfunc *****************
  1226 ;; Defined at:
  1227 ;;		line 179 in file "main.c"
  1228 ;; Parameters:    Size  Location     Type
  1229 ;;		None
  1230 ;; Auto vars:     Size  Location     Type
  1231 ;;		None
  1232 ;; Return value:  Size  Location     Type
  1233 ;;                  1    wreg      void 
  1234 ;; Registers used:
  1235 ;;		status,2, status,0
  1236 ;; Tracked objects:
  1237 ;;		On entry : 0/0
  1238 ;;		On exit  : 0/0
  1239 ;;		Unchanged: 0/0
  1240 ;; Data sizes:     COMRAM   BANK0   BANK1   BANK2   BANK3   BANK4   BANK5   BANK6   BANK7
  1241 ;;      Params:         0       0       0       0       0       0       0       0       0
  1242 ;;      Locals:         0       0       0       0       0       0       0       0       0
  1243 ;;      Temps:          0       0       0       0       0       0       0       0       0
  1244 ;;      Totals:         0       0       0       0       0       0       0       0       0
  1245 ;;Total ram usage:        0 bytes
  1246 ;; Hardware stack levels used:    1
  1247 ;; This function calls:
  1248 ;;		Nothing
  1249 ;; This function is called by:
  1250 ;;		_isr
  1251 ;; This function uses a non-reentrant model
  1252 ;;
  1253                           
  1254                           	psect	text3
  1255  000F5E                     __ptext3:
  1256                           	opt stack 0
  1257  000F5E                     _timerfunc:
  1258                           	opt stack 28
  1259                           
  1260                           ;main.c: 180: if (divisor++ == 100) {
  1261                           
  1262                           ;incstack = 0
  1263  000F5E  4A51               	infsnz	_divisor,f,c
  1264  000F60  2A52               	incf	_divisor+1,f,c
  1265  000F62  0012               	return	
  1266  000F64                     __end_of_timerfunc:
  1267                           	opt stack 0
  1268                           pclatu	equ	0xFFB
  1269                           pclath	equ	0xFFA
  1270                           tblptru	equ	0xFF8
  1271                           tblptrh	equ	0xFF7
  1272                           tblptrl	equ	0xFF6
  1273                           tablat	equ	0xFF5
  1274                           prodh	equ	0xFF4
  1275                           prodl	equ	0xFF3
  1276                           intcon	equ	0xFF2
  1277                           postinc0	equ	0xFEE
  1278                           fsr0h	equ	0xFEA
  1279                           fsr0l	equ	0xFE9
  1280                           postdec1	equ	0xFE5
  1281                           fsr1h	equ	0xFE2
  1282                           fsr1l	equ	0xFE1
  1283                           postinc2	equ	0xFDE
  1284                           postdec2	equ	0xFDD
  1285                           fsr2h	equ	0xFDA
  1286                           fsr2l	equ	0xFD9
  1287                           status	equ	0xFD8
  1288                           
  1289 ;; *************** function _refreshShiftRegister *****************
  1290 ;; Defined at:
  1291 ;;		line 70 in file "main.c"
  1292 ;; Parameters:    Size  Location     Type
  1293 ;;  ptr             2    0[COMRAM] int 
  1294 ;; Auto vars:     Size  Location     Type
  1295 ;;  i               2   60[COMRAM] int 
  1296 ;;  map             4   54[COMRAM] unsigned long 
  1297 ;;  ledSelector     2   58[COMRAM] unsigned int 
  1298 ;; Return value:  Size  Location     Type
  1299 ;;                  1    wreg      void 
  1300 ;; Registers used:
  1301 ;;		wreg, fsr2l, fsr2h, status,2, status,0
  1302 ;; Tracked objects:
  1303 ;;		On entry : 0/0
  1304 ;;		On exit  : 0/0
  1305 ;;		Unchanged: 0/0
  1306 ;; Data sizes:     COMRAM   BANK0   BANK1   BANK2   BANK3   BANK4   BANK5   BANK6   BANK7
  1307 ;;      Params:         2       0       0       0       0       0       0       0       0
  1308 ;;      Locals:         8       0       0       0       0       0       0       0       0
  1309 ;;      Temps:         52       0       0       0       0       0       0       0       0
  1310 ;;      Totals:        62       0       0       0       0       0       0       0       0
  1311 ;;Total ram usage:       62 bytes
  1312 ;; Hardware stack levels used:    1
  1313 ;; This function calls:
  1314 ;;		Nothing
  1315 ;; This function is called by:
  1316 ;;		_isr
  1317 ;; This function uses a non-reentrant model
  1318 ;;
  1319                           
  1320                           	psect	text4
  1321  000858                     __ptext4:
  1322                           	opt stack 0
  1323  000858                     _refreshShiftRegister:
  1324                           	opt stack 28
  1325                           
  1326                           ;main.c: 71: uint16_t ledSelector = 0b1 << ptr;
  1327                           
  1328                           ;incstack = 0
  1329  000858  C001  F003         	movff	refreshShiftRegister@ptr,??_refreshShiftRegister
  1330  00085C  0E01               	movlw	1
  1331  00085E  6E04               	movwf	(??_refreshShiftRegister+1)& (0+255),c
  1332  000860  0E00               	movlw	0
  1333  000862  6E05               	movwf	(??_refreshShiftRegister+2)& (0+255),c
  1334  000864  2A03               	incf	??_refreshShiftRegister,f,c
  1335  000866  D003               	goto	i2u31_44
  1336  000868                     i2u31_45:
  1337  000868  90D8               	bcf	status,0,c
  1338  00086A  3604               	rlcf	??_refreshShiftRegister+1,f,c
  1339  00086C  3605               	rlcf	??_refreshShiftRegister+2,f,c
  1340  00086E                     i2u31_44:
  1341  00086E  2E03               	decfsz	??_refreshShiftRegister,f,c
  1342  000870  D7FB               	goto	i2u31_45
  1343  000872  C004  F03B         	movff	??_refreshShiftRegister+1,refreshShiftRegister@ledSelector
  1344  000876  C005  F03C         	movff	??_refreshShiftRegister+2,refreshShiftRegister@ledSelector+1
  1345                           
  1346                           ;main.c: 73: uint32_t map = ((segMap[ptr] & 0b11111111) << 24)
  1347                           ;main.c: 74: | ((segMap[ptr] & 0b1111111100000000) << 8)
  1348                           ;main.c: 75: | ((ledSelector & 0b0000000011) << 14)
  1349                           ;main.c: 76: | ((led_stat & 0b00001111) << 10)
  1350                           ;main.c: 77: | ((segMap[ptr] & 0b110000000000000000) >> 8)
  1351                           ;main.c: 78: | ((ledSelector & 0b1111111100) >> 2);
  1352  00087A  0E60               	movlw	low _segMap
  1353  00087C  6E03               	movwf	??_refreshShiftRegister& (0+255),c
  1354  00087E  0E00               	movlw	high _segMap
  1355  000880  6E04               	movwf	(??_refreshShiftRegister+1)& (0+255),c
  1356  000882  90D8               	bcf	status,0,c
  1357  000884  3401               	rlcf	refreshShiftRegister@ptr,w,c
  1358  000886  6ED9               	movwf	fsr2l,c
  1359  000888  3402               	rlcf	refreshShiftRegister@ptr+1,w,c
  1360  00088A  6EDA               	movwf	fsr2h,c
  1361  00088C  90D8               	bcf	status,0,c
  1362  00088E  36D9               	rlcf	fsr2l,f,c
  1363  000890  36DA               	rlcf	fsr2h,f,c
  1364  000892  5003               	movf	??_refreshShiftRegister,w,c
  1365  000894  26D9               	addwf	fsr2l,f,c
  1366  000896  5004               	movf	??_refreshShiftRegister+1,w,c
  1367  000898  22DA               	addwfc	fsr2h,f,c
  1368  00089A  CFDE F005          	movff	postinc2,??_refreshShiftRegister+2
  1369  00089E  CFDE F006          	movff	postinc2,??_refreshShiftRegister+3
  1370  0008A2  CFDE F007          	movff	postinc2,??_refreshShiftRegister+4
  1371  0008A6  CFDE F008          	movff	postinc2,??_refreshShiftRegister+5
  1372  0008AA  C006  F005         	movff	??_refreshShiftRegister+3,??_refreshShiftRegister+2
  1373  0008AE  C007  F006         	movff	??_refreshShiftRegister+4,??_refreshShiftRegister+3
  1374  0008B2  C008  F007         	movff	??_refreshShiftRegister+5,??_refreshShiftRegister+4
  1375  0008B6  6A08               	clrf	??_refreshShiftRegister+5,c
  1376  0008B8  0E00               	movlw	0
  1377  0008BA  1405               	andwf	??_refreshShiftRegister+2,w,c
  1378  0008BC  6E09               	movwf	(??_refreshShiftRegister+6)& (0+255),c
  1379  0008BE  0E03               	movlw	3
  1380  0008C0  1406               	andwf	??_refreshShiftRegister+3,w,c
  1381  0008C2  6E0A               	movwf	(??_refreshShiftRegister+7)& (0+255),c
  1382  0008C4  0E00               	movlw	0
  1383  0008C6  1407               	andwf	??_refreshShiftRegister+4,w,c
  1384  0008C8  6E0B               	movwf	(??_refreshShiftRegister+8)& (0+255),c
  1385  0008CA  0E00               	movlw	0
  1386  0008CC  1408               	andwf	??_refreshShiftRegister+5,w,c
  1387  0008CE  6E0C               	movwf	(??_refreshShiftRegister+9)& (0+255),c
  1388  0008D0  5055               	movf	_led_stat,w,c
  1389  0008D2  0B0F               	andlw	15
  1390  0008D4  6E0D               	movwf	(??_refreshShiftRegister+10)& (0+255),c
  1391  0008D6  6A0E               	clrf	(??_refreshShiftRegister+11)& (0+255),c
  1392  0008D8  0E0A               	movlw	10
  1393  0008DA                     i2u32_45:
  1394  0008DA  90D8               	bcf	status,0,c
  1395  0008DC  360D               	rlcf	??_refreshShiftRegister+10,f,c
  1396  0008DE  360E               	rlcf	??_refreshShiftRegister+11,f,c
  1397  0008E0  2EE8               	decfsz	wreg,f,c
  1398  0008E2  D7FB               	goto	i2u32_45
  1399  0008E4  C00D  F00F         	movff	??_refreshShiftRegister+10,??_refreshShiftRegister+12
  1400  0008E8  C00E  F010         	movff	??_refreshShiftRegister+11,??_refreshShiftRegister+13
  1401  0008EC  0E00               	movlw	0
  1402  0008EE  BE10               	btfsc	(??_refreshShiftRegister+13)& (0+255),7,c
  1403  0008F0  0EFF               	movlw	255
  1404  0008F2  6E11               	movwf	(??_refreshShiftRegister+14)& (0+255),c
  1405  0008F4  6E12               	movwf	(??_refreshShiftRegister+15)& (0+255),c
  1406  0008F6  0E03               	movlw	3
  1407  0008F8  143B               	andwf	refreshShiftRegister@ledSelector,w,c
  1408  0008FA  6E13               	movwf	(??_refreshShiftRegister+16)& (0+255),c
  1409  0008FC  0E00               	movlw	0
  1410  0008FE  143C               	andwf	refreshShiftRegister@ledSelector+1,w,c
  1411  000900  6E14               	movwf	(??_refreshShiftRegister+17)& (0+255),c
  1412  000902  0E0E               	movlw	14
  1413  000904                     i2u33_45:
  1414  000904  90D8               	bcf	status,0,c
  1415  000906  3613               	rlcf	??_refreshShiftRegister+16,f,c
  1416  000908  3614               	rlcf	??_refreshShiftRegister+17,f,c
  1417  00090A  2EE8               	decfsz	wreg,f,c
  1418  00090C  D7FB               	goto	i2u33_45
  1419  00090E  0E60               	movlw	low _segMap
  1420  000910  6E15               	movwf	(??_refreshShiftRegister+18)& (0+255),c
  1421  000912  0E00               	movlw	high _segMap
  1422  000914  6E16               	movwf	(??_refreshShiftRegister+19)& (0+255),c
  1423  000916  90D8               	bcf	status,0,c
  1424  000918  3401               	rlcf	refreshShiftRegister@ptr,w,c
  1425  00091A  6ED9               	movwf	fsr2l,c
  1426  00091C  3402               	rlcf	refreshShiftRegister@ptr+1,w,c
  1427  00091E  6EDA               	movwf	fsr2h,c
  1428  000920  90D8               	bcf	status,0,c
  1429  000922  36D9               	rlcf	fsr2l,f,c
  1430  000924  36DA               	rlcf	fsr2h,f,c
  1431  000926  5015               	movf	??_refreshShiftRegister+18,w,c
  1432  000928  26D9               	addwf	fsr2l,f,c
  1433  00092A  5016               	movf	??_refreshShiftRegister+19,w,c
  1434  00092C  22DA               	addwfc	fsr2h,f,c
  1435  00092E  0E00               	movlw	0
  1436  000930  14DE               	andwf	postinc2,w,c
  1437  000932  6E17               	movwf	(??_refreshShiftRegister+20)& (0+255),c
  1438  000934  0EFF               	movlw	255
  1439  000936  14DE               	andwf	postinc2,w,c
  1440  000938  6E18               	movwf	(??_refreshShiftRegister+21)& (0+255),c
  1441  00093A  0E00               	movlw	0
  1442  00093C  14DE               	andwf	postinc2,w,c
  1443  00093E  6E19               	movwf	(??_refreshShiftRegister+22)& (0+255),c
  1444  000940  0E00               	movlw	0
  1445  000942  14DE               	andwf	postinc2,w,c
  1446  000944  6E1A               	movwf	(??_refreshShiftRegister+23)& (0+255),c
  1447  000946  C019  F01A         	movff	??_refreshShiftRegister+22,??_refreshShiftRegister+23
  1448  00094A  C018  F019         	movff	??_refreshShiftRegister+21,??_refreshShiftRegister+22
  1449  00094E  C017  F018         	movff	??_refreshShiftRegister+20,??_refreshShiftRegister+21
  1450  000952  6A17               	clrf	??_refreshShiftRegister+20,c
  1451  000954  0E60               	movlw	low _segMap
  1452  000956  6E1B               	movwf	(??_refreshShiftRegister+24)& (0+255),c
  1453  000958  0E00               	movlw	high _segMap
  1454  00095A  6E1C               	movwf	(??_refreshShiftRegister+25)& (0+255),c
  1455  00095C  90D8               	bcf	status,0,c
  1456  00095E  3401               	rlcf	refreshShiftRegister@ptr,w,c
  1457  000960  6ED9               	movwf	fsr2l,c
  1458  000962  3402               	rlcf	refreshShiftRegister@ptr+1,w,c
  1459  000964  6EDA               	movwf	fsr2h,c
  1460  000966  90D8               	bcf	status,0,c
  1461  000968  36D9               	rlcf	fsr2l,f,c
  1462  00096A  36DA               	rlcf	fsr2h,f,c
  1463  00096C  501B               	movf	??_refreshShiftRegister+24,w,c
  1464  00096E  26D9               	addwf	fsr2l,f,c
  1465  000970  501C               	movf	??_refreshShiftRegister+25,w,c
  1466  000972  22DA               	addwfc	fsr2h,f,c
  1467  000974  CFDE F01D          	movff	postinc2,??_refreshShiftRegister+26
  1468  000978  CFDE F01E          	movff	postinc2,??_refreshShiftRegister+27
  1469  00097C  CFDE F01F          	movff	postinc2,??_refreshShiftRegister+28
  1470  000980  CFDE F020          	movff	postinc2,??_refreshShiftRegister+29
  1471  000984  0EFF               	movlw	255
  1472  000986  141D               	andwf	??_refreshShiftRegister+26,w,c
  1473  000988  6E21               	movwf	(??_refreshShiftRegister+30)& (0+255),c
  1474  00098A  0E00               	movlw	0
  1475  00098C  141E               	andwf	??_refreshShiftRegister+27,w,c
  1476  00098E  6E22               	movwf	(??_refreshShiftRegister+31)& (0+255),c
  1477  000990  0E00               	movlw	0
  1478  000992  141F               	andwf	??_refreshShiftRegister+28,w,c
  1479  000994  6E23               	movwf	(??_refreshShiftRegister+32)& (0+255),c
  1480  000996  0E00               	movlw	0
  1481  000998  1420               	andwf	??_refreshShiftRegister+29,w,c
  1482  00099A  6E24               	movwf	(??_refreshShiftRegister+33)& (0+255),c
  1483  00099C  C021  F024         	movff	??_refreshShiftRegister+30,??_refreshShiftRegister+33
  1484  0009A0  6A23               	clrf	??_refreshShiftRegister+32,c
  1485  0009A2  6A22               	clrf	??_refreshShiftRegister+31,c
  1486  0009A4  6A21               	clrf	??_refreshShiftRegister+30,c
  1487  0009A6  5017               	movf	??_refreshShiftRegister+20,w,c
  1488  0009A8  1021               	iorwf	??_refreshShiftRegister+30,w,c
  1489  0009AA  6E25               	movwf	(??_refreshShiftRegister+34)& (0+255),c
  1490  0009AC  5018               	movf	??_refreshShiftRegister+21,w,c
  1491  0009AE  1022               	iorwf	??_refreshShiftRegister+31,w,c
  1492  0009B0  6E26               	movwf	(??_refreshShiftRegister+35)& (0+255),c
  1493  0009B2  5019               	movf	??_refreshShiftRegister+22,w,c
  1494  0009B4  1023               	iorwf	??_refreshShiftRegister+32,w,c
  1495  0009B6  6E27               	movwf	(??_refreshShiftRegister+36)& (0+255),c
  1496  0009B8  501A               	movf	??_refreshShiftRegister+23,w,c
  1497  0009BA  1024               	iorwf	??_refreshShiftRegister+33,w,c
  1498  0009BC  6E28               	movwf	(??_refreshShiftRegister+37)& (0+255),c
  1499  0009BE  5013               	movf	??_refreshShiftRegister+16,w,c
  1500  0009C0  1025               	iorwf	??_refreshShiftRegister+34,w,c
  1501  0009C2  6E29               	movwf	(??_refreshShiftRegister+38)& (0+255),c
  1502  0009C4  5014               	movf	??_refreshShiftRegister+17,w,c
  1503  0009C6  1026               	iorwf	??_refreshShiftRegister+35,w,c
  1504  0009C8  6E2A               	movwf	(??_refreshShiftRegister+39)& (0+255),c
  1505  0009CA  0E00               	movlw	0
  1506  0009CC  1027               	iorwf	??_refreshShiftRegister+36,w,c
  1507  0009CE  6E2B               	movwf	(??_refreshShiftRegister+40)& (0+255),c
  1508  0009D0  0E00               	movlw	0
  1509  0009D2  1028               	iorwf	??_refreshShiftRegister+37,w,c
  1510  0009D4  6E2C               	movwf	(??_refreshShiftRegister+41)& (0+255),c
  1511  0009D6  500F               	movf	??_refreshShiftRegister+12,w,c
  1512  0009D8  1029               	iorwf	??_refreshShiftRegister+38,w,c
  1513  0009DA  6E2D               	movwf	(??_refreshShiftRegister+42)& (0+255),c
  1514  0009DC  5010               	movf	??_refreshShiftRegister+13,w,c
  1515  0009DE  102A               	iorwf	??_refreshShiftRegister+39,w,c
  1516  0009E0  6E2E               	movwf	(??_refreshShiftRegister+43)& (0+255),c
  1517  0009E2  5011               	movf	??_refreshShiftRegister+14,w,c
  1518  0009E4  102B               	iorwf	??_refreshShiftRegister+40,w,c
  1519  0009E6  6E2F               	movwf	(??_refreshShiftRegister+44)& (0+255),c
  1520  0009E8  5012               	movf	??_refreshShiftRegister+15,w,c
  1521  0009EA  102C               	iorwf	??_refreshShiftRegister+41,w,c
  1522  0009EC  6E30               	movwf	(??_refreshShiftRegister+45)& (0+255),c
  1523  0009EE  5009               	movf	??_refreshShiftRegister+6,w,c
  1524  0009F0  102D               	iorwf	??_refreshShiftRegister+42,w,c
  1525  0009F2  6E31               	movwf	(??_refreshShiftRegister+46)& (0+255),c
  1526  0009F4  500A               	movf	??_refreshShiftRegister+7,w,c
  1527  0009F6  102E               	iorwf	??_refreshShiftRegister+43,w,c
  1528  0009F8  6E32               	movwf	(??_refreshShiftRegister+47)& (0+255),c
  1529  0009FA  500B               	movf	??_refreshShiftRegister+8,w,c
  1530  0009FC  102F               	iorwf	??_refreshShiftRegister+44,w,c
  1531  0009FE  6E33               	movwf	(??_refreshShiftRegister+48)& (0+255),c
  1532  000A00  500C               	movf	??_refreshShiftRegister+9,w,c
  1533  000A02  1030               	iorwf	??_refreshShiftRegister+45,w,c
  1534  000A04  6E34               	movwf	(??_refreshShiftRegister+49)& (0+255),c
  1535  000A06  C03B  F035         	movff	refreshShiftRegister@ledSelector,??_refreshShiftRegister+50
  1536  000A0A  C03C  F036         	movff	refreshShiftRegister@ledSelector+1,??_refreshShiftRegister+51
  1537  000A0E  90D8               	bcf	status,0,c
  1538  000A10  3236               	rrcf	??_refreshShiftRegister+51,f,c
  1539  000A12  3235               	rrcf	??_refreshShiftRegister+50,f,c
  1540  000A14  90D8               	bcf	status,0,c
  1541  000A16  3236               	rrcf	??_refreshShiftRegister+51,f,c
  1542  000A18  3235               	rrcf	??_refreshShiftRegister+50,f,c
  1543  000A1A  5035               	movf	??_refreshShiftRegister+50,w,c
  1544  000A1C  1031               	iorwf	??_refreshShiftRegister+46,w,c
  1545  000A1E  6E37               	movwf	refreshShiftRegister@map,c
  1546  000A20  5032               	movf	??_refreshShiftRegister+47,w,c
  1547  000A22  6E38               	movwf	refreshShiftRegister@map+1,c
  1548  000A24  5033               	movf	??_refreshShiftRegister+48,w,c
  1549  000A26  6E39               	movwf	refreshShiftRegister@map+2,c
  1550  000A28  5034               	movf	??_refreshShiftRegister+49,w,c
  1551  000A2A  6E3A               	movwf	refreshShiftRegister@map+3,c
  1552                           
  1553                           ;main.c: 80: for (int i = 0; i < 32; i++) {
  1554  000A2C  0E00               	movlw	0
  1555  000A2E  6E3E               	movwf	refreshShiftRegister@i+1,c
  1556  000A30  0E00               	movlw	0
  1557  000A32  6E3D               	movwf	refreshShiftRegister@i,c
  1558  000A34  BE3E               	btfsc	refreshShiftRegister@i+1,7,c
  1559  000A36  D003               	goto	i2l75
  1560  000A38  503E               	movf	refreshShiftRegister@i+1,w,c
  1561  000A3A  E12E               	bnz	i2l76
  1562  000A3C  D029               	goto	L1
  1563  000A3E                     i2l75:
  1564                           
  1565                           ;main.c: 81: LATBbits.LATB2 = (map >> i) & 1;
  1566  000A3E  503D               	movf	refreshShiftRegister@i,w,c
  1567  000A40  C037  F003         	movff	refreshShiftRegister@map,??_refreshShiftRegister
  1568  000A44  C038  F004         	movff	refreshShiftRegister@map+1,??_refreshShiftRegister+1
  1569  000A48  C039  F005         	movff	refreshShiftRegister@map+2,??_refreshShiftRegister+2
  1570  000A4C  C03A  F006         	movff	refreshShiftRegister@map+3,??_refreshShiftRegister+3
  1571  000A50  2AE8               	incf	wreg,f,c
  1572  000A52  D005               	goto	i2u35_40
  1573  000A54                     i2u35_45:
  1574  000A54  90D8               	bcf	status,0,c
  1575  000A56  3206               	rrcf	??_refreshShiftRegister+3,f,c
  1576  000A58  3205               	rrcf	??_refreshShiftRegister+2,f,c
  1577  000A5A  3204               	rrcf	??_refreshShiftRegister+1,f,c
  1578  000A5C  3203               	rrcf	??_refreshShiftRegister,f,c
  1579  000A5E                     i2u35_40:
  1580  000A5E  2EE8               	decfsz	wreg,f,c
  1581  000A60  D7F9               	goto	i2u35_45
  1582  000A62  0E01               	movlw	1
  1583  000A64  1603               	andwf	??_refreshShiftRegister,f,c
  1584  000A66  4603               	rlncf	??_refreshShiftRegister,f,c
  1585  000A68  4603               	rlncf	??_refreshShiftRegister,f,c
  1586  000A6A  508A               	movf	3978,w,c	;volatile
  1587  000A6C  1803               	xorwf	??_refreshShiftRegister,w,c
  1588  000A6E  0BFB               	andlw	-5
  1589  000A70  1803               	xorwf	??_refreshShiftRegister,w,c
  1590  000A72  6E8A               	movwf	3978,c	;volatile
  1591                           
  1592                           ;main.c: 82: LATBbits.LATB3 = 1;
  1593  000A74  868A               	bsf	3978,3,c	;volatile
  1594                           
  1595                           ;main.c: 83: _delay((unsigned long)((1)*(20000000/4000000.0)));
  1596  000A76  D000               	nop2		;2 cycle nop
  1597  000A78  D000               	nop2		;2 cycle nop
  1598  000A7A  F000               	nop	
  1599                           
  1600                           ;main.c: 84: LATBbits.LATB3 = 0;
  1601  000A7C  968A               	bcf	3978,3,c	;volatile
  1602                           
  1603                           ;main.c: 85: _delay((unsigned long)((1)*(20000000/4000000.0)));
  1604  000A7E  D000               	nop2		;2 cycle nop
  1605  000A80  D000               	nop2		;2 cycle nop
  1606  000A82  F000               	nop	
  1607  000A84  4A3D               	infsnz	refreshShiftRegister@i,f,c
  1608  000A86  2A3E               	incf	refreshShiftRegister@i+1,f,c
  1609  000A88  BE3E               	btfsc	refreshShiftRegister@i+1,7,c
  1610  000A8A  D7D9               	goto	i2l75
  1611  000A8C  503E               	movf	refreshShiftRegister@i+1,w,c
  1612  000A8E  E104               	bnz	i2u36_40
  1613  000A90                     L1:
  1614  000A90  0E20               	movlw	32
  1615  000A92  5C3D               	subwf	refreshShiftRegister@i,w,c
  1616  000A94  A0D8               	btfss	status,0,c
  1617  000A96  D7D3               	goto	i2l75
  1618  000A98                     i2u36_40:
  1619  000A98                     i2l76:
  1620                           
  1621                           ;main.c: 86: }
  1622                           ;main.c: 88: LATBbits.LATB4 = 1;
  1623  000A98  888A               	bsf	3978,4,c	;volatile
  1624                           
  1625                           ;main.c: 89: _delay((unsigned long)((1)*(20000000/4000000.0)));
  1626  000A9A  D000               	nop2		;2 cycle nop
  1627  000A9C  D000               	nop2		;2 cycle nop
  1628  000A9E  F000               	nop	
  1629                           
  1630                           ;main.c: 90: LATBbits.LATB4 = 0;
  1631  000AA0  988A               	bcf	3978,4,c	;volatile
  1632                           
  1633                           ;main.c: 91: _delay((unsigned long)((1)*(20000000/4000000.0)));
  1634  000AA2  D000               	nop2		;2 cycle nop
  1635  000AA4  D000               	nop2		;2 cycle nop
  1636  000AA6  F000               	nop	
  1637  000AA8  0012               	return		;funcret
  1638  000AAA                     __end_of_refreshShiftRegister:
  1639                           	opt stack 0
  1640                           pclatu	equ	0xFFB
  1641                           pclath	equ	0xFFA
  1642                           tblptru	equ	0xFF8
  1643                           tblptrh	equ	0xFF7
  1644                           tblptrl	equ	0xFF6
  1645                           tablat	equ	0xFF5
  1646                           prodh	equ	0xFF4
  1647                           prodl	equ	0xFF3
  1648                           intcon	equ	0xFF2
  1649                           postinc0	equ	0xFEE
  1650                           fsr0h	equ	0xFEA
  1651                           fsr0l	equ	0xFE9
  1652                           wreg	equ	0xFE8
  1653                           postdec1	equ	0xFE5
  1654                           fsr1h	equ	0xFE2
  1655                           fsr1l	equ	0xFE1
  1656                           postinc2	equ	0xFDE
  1657                           postdec2	equ	0xFDD
  1658                           fsr2h	equ	0xFDA
  1659                           fsr2l	equ	0xFD9
  1660                           status	equ	0xFD8
  1661                           
  1662 ;; *************** function ___awmod *****************
  1663 ;; Defined at:
  1664 ;;		line 8 in file "D:\Microchip\xc8\v1.45\sources\common\awmod.c"
  1665 ;; Parameters:    Size  Location     Type
  1666 ;;  dividend        2    0[COMRAM] int 
  1667 ;;  divisor         2    2[COMRAM] int 
  1668 ;; Auto vars:     Size  Location     Type
  1669 ;;  sign            1    5[COMRAM] unsigned char 
  1670 ;;  counter         1    4[COMRAM] unsigned char 
  1671 ;; Return value:  Size  Location     Type
  1672 ;;                  2    0[COMRAM] int 
  1673 ;; Registers used:
  1674 ;;		wreg, status,2, status,0
  1675 ;; Tracked objects:
  1676 ;;		On entry : 0/0
  1677 ;;		On exit  : 0/0
  1678 ;;		Unchanged: 0/0
  1679 ;; Data sizes:     COMRAM   BANK0   BANK1   BANK2   BANK3   BANK4   BANK5   BANK6   BANK7
  1680 ;;      Params:         4       0       0       0       0       0       0       0       0
  1681 ;;      Locals:         2       0       0       0       0       0       0       0       0
  1682 ;;      Temps:          0       0       0       0       0       0       0       0       0
  1683 ;;      Totals:         6       0       0       0       0       0       0       0       0
  1684 ;;Total ram usage:        6 bytes
  1685 ;; Hardware stack levels used:    1
  1686 ;; This function calls:
  1687 ;;		Nothing
  1688 ;; This function is called by:
  1689 ;;		_isr
  1690 ;; This function uses a non-reentrant model
  1691 ;;
  1692                           
  1693                           	psect	text5
  1694  000E66                     __ptext5:
  1695                           	opt stack 0
  1696  000E66                     ___awmod:
  1697                           	opt stack 28
  1698                           
  1699                           ;incstack = 0
  1700  000E66  0E00               	movlw	0
  1701  000E68  6E06               	movwf	___awmod@sign,c
  1702  000E6A  AE02               	btfss	___awmod@dividend+1,7,c
  1703  000E6C  D006               	goto	i2l339
  1704  000E6E  6C01               	negf	___awmod@dividend,c
  1705  000E70  1E02               	comf	___awmod@dividend+1,f,c
  1706  000E72  B0D8               	btfsc	status,0,c
  1707  000E74  2A02               	incf	___awmod@dividend+1,f,c
  1708  000E76  0E01               	movlw	1
  1709  000E78  6E06               	movwf	___awmod@sign,c
  1710  000E7A                     i2l339:
  1711  000E7A  AE04               	btfss	___awmod@divisor+1,7,c
  1712  000E7C  D004               	goto	i2l340
  1713  000E7E  6C03               	negf	___awmod@divisor,c
  1714  000E80  1E04               	comf	___awmod@divisor+1,f,c
  1715  000E82  B0D8               	btfsc	status,0,c
  1716  000E84  2A04               	incf	___awmod@divisor+1,f,c
  1717  000E86                     i2l340:
  1718  000E86  5003               	movf	___awmod@divisor,w,c
  1719  000E88  1004               	iorwf	___awmod@divisor+1,w,c
  1720  000E8A  B4D8               	btfsc	status,2,c
  1721  000E8C  D018               	goto	i2l347
  1722  000E8E  0E01               	movlw	1
  1723  000E90  6E05               	movwf	___awmod@counter,c
  1724  000E92  D004               	goto	i2l342
  1725  000E94  90D8               	bcf	status,0,c
  1726  000E96  3603               	rlcf	___awmod@divisor,f,c
  1727  000E98  3604               	rlcf	___awmod@divisor+1,f,c
  1728  000E9A  2A05               	incf	___awmod@counter,f,c
  1729  000E9C                     i2l342:
  1730  000E9C  AE04               	btfss	___awmod@divisor+1,7,c
  1731  000E9E  D7FA               	goto	i2l343
  1732  000EA0                     i2u40_40:
  1733  000EA0  5003               	movf	___awmod@divisor,w,c
  1734  000EA2  5C01               	subwf	___awmod@dividend,w,c
  1735  000EA4  5004               	movf	___awmod@divisor+1,w,c
  1736  000EA6  5802               	subwfb	___awmod@dividend+1,w,c
  1737  000EA8  A0D8               	btfss	status,0,c
  1738  000EAA  D004               	goto	i2l346
  1739  000EAC  5003               	movf	___awmod@divisor,w,c
  1740  000EAE  5E01               	subwf	___awmod@dividend,f,c
  1741  000EB0  5004               	movf	___awmod@divisor+1,w,c
  1742  000EB2  5A02               	subwfb	___awmod@dividend+1,f,c
  1743  000EB4                     i2l346:
  1744  000EB4  90D8               	bcf	status,0,c
  1745  000EB6  3204               	rrcf	___awmod@divisor+1,f,c
  1746  000EB8  3203               	rrcf	___awmod@divisor,f,c
  1747  000EBA  2E05               	decfsz	___awmod@counter,f,c
  1748  000EBC  D7F1               	goto	i2u40_40
  1749  000EBE                     i2l347:
  1750  000EBE  5006               	movf	___awmod@sign,w,c
  1751  000EC0  B4D8               	btfsc	status,2,c
  1752  000EC2  D004               	goto	i2l348
  1753  000EC4  6C01               	negf	___awmod@dividend,c
  1754  000EC6  1E02               	comf	___awmod@dividend+1,f,c
  1755  000EC8  B0D8               	btfsc	status,0,c
  1756  000ECA  2A02               	incf	___awmod@dividend+1,f,c
  1757  000ECC                     i2l348:
  1758  000ECC  C001  F001         	movff	___awmod@dividend,?___awmod
  1759  000ED0  C002  F002         	movff	___awmod@dividend+1,?___awmod+1
  1760  000ED4  0012               	return	
  1761  000ED6                     __end_of___awmod:
  1762                           	opt stack 0
  1763                           pclatu	equ	0xFFB
  1764                           pclath	equ	0xFFA
  1765                           tblptru	equ	0xFF8
  1766                           tblptrh	equ	0xFF7
  1767                           tblptrl	equ	0xFF6
  1768                           tablat	equ	0xFF5
  1769                           prodh	equ	0xFF4
  1770                           prodl	equ	0xFF3
  1771                           intcon	equ	0xFF2
  1772                           postinc0	equ	0xFEE
  1773                           fsr0h	equ	0xFEA
  1774                           fsr0l	equ	0xFE9
  1775                           wreg	equ	0xFE8
  1776                           postdec1	equ	0xFE5
  1777                           fsr1h	equ	0xFE2
  1778                           fsr1l	equ	0xFE1
  1779                           postinc2	equ	0xFDE
  1780                           postdec2	equ	0xFDD
  1781                           fsr2h	equ	0xFDA
  1782                           fsr2l	equ	0xFD9
  1783                           status	equ	0xFD8
  1784                           pclatu	equ	0xFFB
  1785                           pclath	equ	0xFFA
  1786                           tblptru	equ	0xFF8
  1787                           tblptrh	equ	0xFF7
  1788                           tblptrl	equ	0xFF6
  1789                           tablat	equ	0xFF5
  1790                           prodh	equ	0xFF4
  1791                           prodl	equ	0xFF3
  1792                           intcon	equ	0xFF2
  1793                           postinc0	equ	0xFEE
  1794                           fsr0h	equ	0xFEA
  1795                           fsr0l	equ	0xFE9
  1796                           wreg	equ	0xFE8
  1797                           postdec1	equ	0xFE5
  1798                           fsr1h	equ	0xFE2
  1799                           fsr1l	equ	0xFE1
  1800                           postinc2	equ	0xFDE
  1801                           postdec2	equ	0xFDD
  1802                           fsr2h	equ	0xFDA
  1803                           fsr2l	equ	0xFD9
  1804                           status	equ	0xFD8
  1805                           
  1806                           	psect	rparam
  1807  0000                     pclatu	equ	0xFFB
  1808                           pclath	equ	0xFFA
  1809                           tblptru	equ	0xFF8
  1810                           tblptrh	equ	0xFF7
  1811                           tblptrl	equ	0xFF6
  1812                           tablat	equ	0xFF5
  1813                           prodh	equ	0xFF4
  1814                           prodl	equ	0xFF3
  1815                           intcon	equ	0xFF2
  1816                           postinc0	equ	0xFEE
  1817                           fsr0h	equ	0xFEA
  1818                           fsr0l	equ	0xFE9
  1819                           wreg	equ	0xFE8
  1820                           postdec1	equ	0xFE5
  1821                           fsr1h	equ	0xFE2
  1822                           fsr1l	equ	0xFE1
  1823                           postinc2	equ	0xFDE
  1824                           postdec2	equ	0xFDD
  1825                           fsr2h	equ	0xFDA
  1826                           fsr2l	equ	0xFD9
  1827                           status	equ	0xFD8
  1828                           
  1829                           	psect	temp
  1830  000056                     btemp:
  1831                           	opt stack 0
  1832  000056                     	ds	1
  1833  0000                     int$flags	set	btemp
  1834  0000                     wtemp6	set	btemp+1
  1835                           pclatu	equ	0xFFB
  1836                           pclath	equ	0xFFA
  1837                           tblptru	equ	0xFF8
  1838                           tblptrh	equ	0xFF7
  1839                           tblptrl	equ	0xFF6
  1840                           tablat	equ	0xFF5
  1841                           prodh	equ	0xFF4
  1842                           prodl	equ	0xFF3
  1843                           intcon	equ	0xFF2
  1844                           postinc0	equ	0xFEE
  1845                           fsr0h	equ	0xFEA
  1846                           fsr0l	equ	0xFE9
  1847                           wreg	equ	0xFE8
  1848                           postdec1	equ	0xFE5
  1849                           fsr1h	equ	0xFE2
  1850                           fsr1l	equ	0xFE1
  1851                           postinc2	equ	0xFDE
  1852                           postdec2	equ	0xFDD
  1853                           fsr2h	equ	0xFDA
  1854                           fsr2l	equ	0xFD9
  1855                           status	equ	0xFD8


Data Sizes:
    Strings     10
    Constant    76
    Data        294
    BSS         6
    Persistent  1
    Stack       0

Auto Spaces:
    Space          Size  Autos    Used
    COMRAM           94     80      85
    BANK0           160     33      71
    BANK1           256      0       0
    BANK2           256      0       0
    BANK3           256      0       0
    BANK4           256      0       0
    BANK5           256      0       0
    BANK6           256      0       0
    BANK7           256      0       0

Pointer List with Targets:

    setMsg@input	PTR unsigned char  size(2) Largest target is 10
		 -> STR_1(CODE[10]), 


Critical Paths under _main in COMRAM

    None.

Critical Paths under _isr in COMRAM

    _isr->_refreshShiftRegister

Critical Paths under _main in BANK0

    _main->_setMsg

Critical Paths under _isr in BANK0

    None.

Critical Paths under _main in BANK1

    None.

Critical Paths under _isr in BANK1

    None.

Critical Paths under _main in BANK2

    None.

Critical Paths under _isr in BANK2

    None.

Critical Paths under _main in BANK3

    None.

Critical Paths under _isr in BANK3

    None.

Critical Paths under _main in BANK4

    None.

Critical Paths under _isr in BANK4

    None.

Critical Paths under _main in BANK5

    None.

Critical Paths under _isr in BANK5

    None.

Critical Paths under _main in BANK6

    None.

Critical Paths under _isr in BANK6

    None.

Critical Paths under _main in BANK7

    None.

Critical Paths under _isr in BANK7

    None.

Call Graph Tables:

 ---------------------------------------------------------------------------------
 (Depth) Function   	        Calls       Base Space   Used Autos Params    Refs
 ---------------------------------------------------------------------------------
 (0) _main                                                19    19      0     391
                                             14 BANK0     19    19      0
                             _setMsg
 ---------------------------------------------------------------------------------
 (1) _setMsg                                              14    12      2     188
                                              0 BANK0     14    12      2
 ---------------------------------------------------------------------------------
 Estimated maximum stack depth 1
 ---------------------------------------------------------------------------------
 (Depth) Function   	        Calls       Base Space   Used Autos Params    Refs
 ---------------------------------------------------------------------------------
 (2) _isr                                                 18    18      0     748
                                             62 COMRAM    18    18      0
                            ___awmod
               _refreshShiftRegister
                          _timerfunc
 ---------------------------------------------------------------------------------
 (3) _timerfunc                                            0     0      0       0
 ---------------------------------------------------------------------------------
 (3) _refreshShiftRegister                                62    60      2     300
                                              0 COMRAM    62    60      2
 ---------------------------------------------------------------------------------
 (3) ___awmod                                              6     2      4     448
                                              0 COMRAM     6     2      4
 ---------------------------------------------------------------------------------
 Estimated maximum stack depth 3
 ---------------------------------------------------------------------------------

 Call Graph Graphs:

 _main (ROOT)
   _setMsg

 _isr (ROOT)
   ___awmod
   _refreshShiftRegister
   _timerfunc

 Address spaces:
Name               Size   Autos  Total    Cost      Usage
BIGRAM             7FF      0     102      21       12.6%
EEDATA             100      0       0       0        0.0%
BITBANK7           100      0       0      18        0.0%
BANK7              100      0       0      19        0.0%
BITBANK6           100      0       0      16        0.0%
BANK6              100      0       0      17        0.0%
BITBANK5           100      0       0      14        0.0%
BANK5              100      0       0      15        0.0%
BITBANK4           100      0       0      12        0.0%
BANK4              100      0       0      13        0.0%
BITBANK3           100      0       0      10        0.0%
BANK3              100      0       0      11        0.0%
BITBANK2           100      0       0       8        0.0%
BANK2              100      0       0       9        0.0%
BITBANK1           100      0       0       6        0.0%
BANK1              100      0       0       7        0.0%
BITBANK0            A0      0       0       4        0.0%
BANK0               A0     21      47       5       44.4%
BITCOMRAM           5E      0       0       0        0.0%
COMRAM              5E     50      55       1       90.4%
BITSFR               0      0       0     200        0.0%
SFR                  0      0       0     200        0.0%
STACK                0      0       0       2        0.0%
NULL                 0      0       0       0        0.0%
ABS                  0      0      9C      20        0.0%
DATA                 0      0     19E       3        0.0%
CODE                 0      0       0       0        0.0%


Microchip Technology PIC18 Macro Assembler V1.45 build -152302408 
Symbol Table                                                                                   Fri Aug 03 17:35:20 2018

                    _SSPSTATbits 000FC7                               l70 0E64  
                             l90 0B6A                               l82 0B0A  
                             l68 0DF4                               l84 0BEE  
                             l86 0B46                               l88 0B62  
           __end_of_DEMO_MESSAGE 084D                              l974 0DE4  
                            _PR2 000FCB                              _isr 0008  
                   ___awmod@sign 0006                              prod 000FF3  
                            wreg 000FE8                     __CFG_FOSC$HS 000000  
                   __CFG_LVP$OFF 000000                     __CFG_WDT$OFF 000000  
                           l1084 0B0A                             ?_isr 0001  
                           STR_1 084D                      main@dotflag 009E  
                           _BRGH 007D62                             i2l75 0A3E  
                           i2l76 0A98                             _TMR2 000FCC  
                           _main 0AAA                             fsr0h 000FEA  
                           fsr1h 000FE2                             fsr2h 000FDA  
                           fsr0l 000FE9                             fsr1l 000FE1  
                           fsr2l 000FD9                             btemp 0056  
                           prodh 000FF4                             prodl 000FF3  
                           start 000E                    __CFG_MCLRE$ON 000000  
                   ___param_bank 000000    __size_of_refreshShiftRegister 0252  
                          ??_isr 003F                            ?_main 0001  
                __end_of___awmod 0ED6                            _CMCON 000FB4  
                          _T2CON 000FCA                            i2l104 0D8E  
                          i2l340 0E86                            i2l342 0E9C  
                          i2l343 0E94                            i2l346 0EB4  
                          i2l347 0EBE                            i2l339 0E7A  
                          i2l348 0ECC                            _RCREG 000FAE  
                          _RCSTA 000FAB                            _SPBRG 000FAF  
                          _TRISA 000F92                            _TRISB 000F93  
                          _TRISC 000F94                            _TRISD 000F95  
                          _SSPIE 007CEB                            _TRISE 000F96  
                          _SSPIF 007CF3                            pclath 000FFA  
                          tablat 000FF5                            status 000FD8  
                          wtemp6 0057                  __initialization 0ED6  
                   __end_of_main 0C02                           ??_main 0092  
                  __activetblptr 000001                           _ADCON1 000FC1  
        refreshShiftRegister@map 0037          refreshShiftRegister@ptr 0001  
                         _SPBRGH 000FB0                           _SSPADD 000FC8  
                         _SSPBUF 000FC9                        ??___awmod 0005  
                         _segMap 0060                           _setMsg 0DDA  
                ___awmod@divisor 0003                           _tmrIsr 00A5  
                ___awmod@counter 0005                   _MESSAGE_LENGTH 0801  
                   __pdataBIGRAM 00A7                     __mediumconst 0000  
                         tblptrh 000FF7                           tblptrl 000FF6  
                         tblptru 000FF8                     _DEMO_MESSAGE 0803  
                     __accesstop 0060          __end_of__initialization 0F28  
                  ___rparam_used 000001                   __pcstackCOMRAM 0001  
                   __pidataBANK0 0F3A           __end_of_MESSAGE_LENGTH 0803  
          refreshShiftRegister@i 003D                       __pbssBANK0 00A5  
                     __pnvCOMRAM 0055                          _BAUDCON 000FB8  
                        ?_setMsg 0084                      setMsg@input 0084  
             __size_of_timerfunc 0006                          i2u31_44 086E  
   __end_of_refreshShiftRegister 0AAA                          i2u31_45 0868  
                        i2u40_40 0EA0                          i2u32_45 08DA  
                        i2u33_45 0904                          i2u35_40 0A5E  
                        i2u35_45 0A54                          i2u36_40 0A98  
                        _SSPCON1 000FC6                          _SSPCON2 000FC5  
                        _SSPSTAT 000FC7                          __Hparam 0000  
                        __Lparam 0000                          ___awmod 0E66  
                   __psmallconst 0800                          __pcinit 0ED6  
                        __ramtop 0800                  __size_of_setMsg 008C  
                        __ptext0 0AAA                          __ptext1 0DDA  
                        __ptext3 0F5E                          __ptext4 0858  
                        __ptext5 0E66                          _divisor 0051  
                   __size_of_isr 0DD2                 ___awmod@dividend 0001  
              main@digitSelector 00A2                   __pintcode_body 0D04  
           end_of_initialization 0F28                          int_func 0D04  
                        setMsg@i 0090                __end_of_timerfunc 0F64  
                        postdec1 000FE5                          postdec2 000FDD  
                        postinc0 000FEE                          postinc2 000FDE  
                     main@RxData 00A4             _refreshShiftRegister 0858  
                  __pidataBIGRAM 0C02                   __end_of_setMsg 0E66  
            start_initialization 0ED6                      __end_of_isr 0DDA  
          ?_refreshShiftRegister 0001                      __pdataBANK0 0060  
                       ??_setMsg 0086                      __pbssCOMRAM 0051  
                  __pcstackBANK0 0084  refreshShiftRegister@ledSelector 003B  
                      __pintcode 0008                         ?___awmod 0001  
                    __smallconst 0800                         _LATAbits 000F89  
                       _LATBbits 000F8A                         _LATCbits 000F8B  
                       _PIE1bits 000F9D           ??_refreshShiftRegister 0003  
                       _PIR1bits 000F9E                        _timerfunc 0F5E  
                      copy_data0 0EEA                        copy_data1 0F0E  
                       __Hrparam 0000                         __Lrparam 0000  
                   __Lsmallconst 0800                       ?_timerfunc 0001  
               __size_of___awmod 0070                         _digitPtr 0053  
                       _led_stat 0055                         _fontList 00A7  
                  __size_of_main 0158                         int$flags 0056  
                     _INTCONbits 000FF2                         intlevel2 0000  
                    ??_timerfunc 0001                      _SSPCON2bits 000FC5  
